ARM GAS  C:\Users\Bence\AppData\Local\Temp\ccxlmg3d.s 			page 1


   1              		.cpu cortex-m4
   2              		.arch armv7e-m
   3              		.fpu fpv4-sp-d16
   4              		.eabi_attribute 27, 1
   5              		.eabi_attribute 28, 1
   6              		.eabi_attribute 20, 1
   7              		.eabi_attribute 21, 1
   8              		.eabi_attribute 23, 3
   9              		.eabi_attribute 24, 1
  10              		.eabi_attribute 25, 1
  11              		.eabi_attribute 26, 1
  12              		.eabi_attribute 30, 1
  13              		.eabi_attribute 34, 1
  14              		.eabi_attribute 18, 4
  15              		.file	"main.c"
  16              		.text
  17              	.Ltext0:
  18              		.cfi_sections	.debug_frame
  19              		.section	.text.MX_GPIO_Init,"ax",%progbits
  20              		.align	1
  21              		.syntax unified
  22              		.thumb
  23              		.thumb_func
  25              	MX_GPIO_Init:
  26              	.LFB136:
  27              		.file 1 "Core/Src/main.c"
   1:Core/Src/main.c **** /* USER CODE BEGIN Header */
   2:Core/Src/main.c **** /**
   3:Core/Src/main.c ****  ******************************************************************************
   4:Core/Src/main.c ****  * @file           : main.c
   5:Core/Src/main.c ****  * @brief          : Main program body
   6:Core/Src/main.c ****  ******************************************************************************
   7:Core/Src/main.c ****  * @attention
   8:Core/Src/main.c ****  *
   9:Core/Src/main.c ****  * Copyright (c) 2023 STMicroelectronics.
  10:Core/Src/main.c ****  * All rights reserved.
  11:Core/Src/main.c ****  *
  12:Core/Src/main.c ****  * This software is licensed under terms that can be found in the LICENSE file
  13:Core/Src/main.c ****  * in the root directory of this software component.
  14:Core/Src/main.c ****  * If no LICENSE file comes with this software, it is provided AS-IS.
  15:Core/Src/main.c ****  *
  16:Core/Src/main.c ****  ******************************************************************************
  17:Core/Src/main.c ****  */
  18:Core/Src/main.c **** /* USER CODE END Header */
  19:Core/Src/main.c **** /* Includes ------------------------------------------------------------------*/
  20:Core/Src/main.c **** #include "main.h"
  21:Core/Src/main.c **** #include "usb_device.h"
  22:Core/Src/main.c **** /* Private includes ----------------------------------------------------------*/
  23:Core/Src/main.c **** /* USER CODE BEGIN Includes */
  24:Core/Src/main.c **** #include "../../dataprovider.h"
  25:Core/Src/main.c **** #include "../../rust_wrapper.h"
  26:Core/Src/main.c **** #include "../../Middlewares/ST/STM32_USB_Device_Library/Class/CustomHID/Inc/usbd_customhid.h"
  27:Core/Src/main.c **** #include "../../USB_DEVICE/App/usbd_custom_hid_if.h"
  28:Core/Src/main.c **** /* USER CODE END Includes */
  29:Core/Src/main.c **** 
  30:Core/Src/main.c **** /* Private typedef -----------------------------------------------------------*/
  31:Core/Src/main.c **** /* USER CODE BEGIN PTD */
ARM GAS  C:\Users\Bence\AppData\Local\Temp\ccxlmg3d.s 			page 2


  32:Core/Src/main.c **** 
  33:Core/Src/main.c **** /* USER CODE END PTD */
  34:Core/Src/main.c **** 
  35:Core/Src/main.c **** /* Private define ------------------------------------------------------------*/
  36:Core/Src/main.c **** /* USER CODE BEGIN PD */
  37:Core/Src/main.c **** 
  38:Core/Src/main.c **** /* USER CODE END PD */
  39:Core/Src/main.c **** 
  40:Core/Src/main.c **** /* Private macro -------------------------------------------------------------*/
  41:Core/Src/main.c **** /* USER CODE BEGIN PM */
  42:Core/Src/main.c **** 
  43:Core/Src/main.c **** /* USER CODE END PM */
  44:Core/Src/main.c **** 
  45:Core/Src/main.c **** /* Private variables ---------------------------------------------------------*/
  46:Core/Src/main.c **** 
  47:Core/Src/main.c **** /* USER CODE BEGIN PV */
  48:Core/Src/main.c **** uint8_t bufferForButton[0x40];
  49:Core/Src/main.c **** uint8_t button_val;
  50:Core/Src/main.c **** uint8_t button_available_to_report = 1;
  51:Core/Src/main.c **** extern USBD_HandleTypeDef hUsbDeviceFS;
  52:Core/Src/main.c **** /* USER CODE END PV */
  53:Core/Src/main.c **** 
  54:Core/Src/main.c **** /* Private function prototypes -----------------------------------------------*/
  55:Core/Src/main.c **** void SystemClock_Config(void);
  56:Core/Src/main.c **** static void MX_GPIO_Init(void);
  57:Core/Src/main.c **** /* USER CODE BEGIN PFP */
  58:Core/Src/main.c **** 
  59:Core/Src/main.c **** /* USER CODE END PFP */
  60:Core/Src/main.c **** 
  61:Core/Src/main.c **** /* Private user code ---------------------------------------------------------*/
  62:Core/Src/main.c **** /* USER CODE BEGIN 0 */
  63:Core/Src/main.c **** 
  64:Core/Src/main.c **** /* USER CODE END 0 */
  65:Core/Src/main.c **** 
  66:Core/Src/main.c **** /**
  67:Core/Src/main.c ****  * @brief  The application entry point.
  68:Core/Src/main.c ****  * @retval int
  69:Core/Src/main.c ****  */
  70:Core/Src/main.c **** int main(void)
  71:Core/Src/main.c **** {
  72:Core/Src/main.c ****   /* USER CODE BEGIN 1 */
  73:Core/Src/main.c ****   initDataprovider();
  74:Core/Src/main.c **** 
  75:Core/Src/main.c ****   /* USER CODE END 1 */
  76:Core/Src/main.c **** 
  77:Core/Src/main.c ****   /* MCU Configuration--------------------------------------------------------*/
  78:Core/Src/main.c **** 
  79:Core/Src/main.c ****   /* Reset of all peripherals, Initializes the Flash interface and the Systick. */
  80:Core/Src/main.c ****   HAL_Init();
  81:Core/Src/main.c **** 
  82:Core/Src/main.c ****   /* USER CODE BEGIN Init */
  83:Core/Src/main.c **** 
  84:Core/Src/main.c ****   /* USER CODE END Init */
  85:Core/Src/main.c **** 
  86:Core/Src/main.c ****   /* Configure the system clock */
  87:Core/Src/main.c ****   SystemClock_Config();
  88:Core/Src/main.c **** 
ARM GAS  C:\Users\Bence\AppData\Local\Temp\ccxlmg3d.s 			page 3


  89:Core/Src/main.c ****   /* USER CODE BEGIN SysInit */
  90:Core/Src/main.c **** 
  91:Core/Src/main.c ****   /* USER CODE END SysInit */
  92:Core/Src/main.c **** 
  93:Core/Src/main.c ****   /* Initialize all configured peripherals */
  94:Core/Src/main.c ****   MX_GPIO_Init();
  95:Core/Src/main.c ****   MX_USB_DEVICE_Init();
  96:Core/Src/main.c ****   /* USER CODE BEGIN 2 */
  97:Core/Src/main.c **** 
  98:Core/Src/main.c ****   /* USER CODE END 2 */
  99:Core/Src/main.c **** 
 100:Core/Src/main.c ****   /* Infinite loop */
 101:Core/Src/main.c ****   /* USER CODE BEGIN WHILE */
 102:Core/Src/main.c ****   while (1)
 103:Core/Src/main.c ****   {
 104:Core/Src/main.c ****     /* USER CODE END WHILE */
 105:Core/Src/main.c ****     HAL_Delay(getLED_Green_speed());
 106:Core/Src/main.c ****     HAL_GPIO_TogglePin(LED_Green_GPIO_Port, LED_Green_Pin);
 107:Core/Src/main.c **** 
 108:Core/Src/main.c ****     if (getLDs() == 2 && ((int)getLED_Blue_isActive() != (int)getLED_Blue_currentState()))
 109:Core/Src/main.c ****     {
 110:Core/Src/main.c ****       HAL_GPIO_TogglePin(LED_Blue_GPIO_Port, LED_Blue_Pin);
 111:Core/Src/main.c ****       setLED_Blue_currentState((int)getLED_Blue_isActive());
 112:Core/Src/main.c ****     }
 113:Core/Src/main.c ****     else if (getLDs() == 3 && ((int)getLED_Red_isActive() != (int)getLED_Red_currentState()))
 114:Core/Src/main.c ****     {
 115:Core/Src/main.c ****       HAL_GPIO_TogglePin(LED_Red_GPIO_Port, LED_Red_Pin);
 116:Core/Src/main.c ****       setLED_Red_currentState((int)getLED_Red_isActive());
 117:Core/Src/main.c ****     }
 118:Core/Src/main.c **** 
 119:Core/Src/main.c ****     button_val = HAL_GPIO_ReadPin(UserButton_GPIO_Port, UserButton_Pin);
 120:Core/Src/main.c **** 
 121:Core/Src/main.c ****     if (button_val == 1 && button_available_to_report == 1)
 122:Core/Src/main.c ****     {
 123:Core/Src/main.c ****       button_available_to_report = 0;
 124:Core/Src/main.c ****       memset(bufferForButton, 0, 0x40);
 125:Core/Src/main.c ****       bufferForButton[1] = 66; // B
 126:Core/Src/main.c ****       bufferForButton[2] = 68; // D aka Button Down
 127:Core/Src/main.c ****       USBD_CUSTOM_HID_SendReport(&hUsbDeviceFS, bufferForButton, 0x40);
 128:Core/Src/main.c ****     }
 129:Core/Src/main.c ****     else if (button_val == 0 && button_available_to_report == 0)
 130:Core/Src/main.c ****     {
 131:Core/Src/main.c ****       memset(bufferForButton, 0, 0x40);
 132:Core/Src/main.c ****       bufferForButton[1] = 66; // B
 133:Core/Src/main.c ****       bufferForButton[2] = 85; // U aka Button Up
 134:Core/Src/main.c ****       USBD_CUSTOM_HID_SendReport(&hUsbDeviceFS, bufferForButton, 0x40);
 135:Core/Src/main.c ****       button_available_to_report = 1;
 136:Core/Src/main.c ****     }
 137:Core/Src/main.c **** 
 138:Core/Src/main.c ****     /* USER CODE BEGIN 3 */
 139:Core/Src/main.c ****   }
 140:Core/Src/main.c ****   /* USER CODE END 3 */
 141:Core/Src/main.c **** }
 142:Core/Src/main.c **** 
 143:Core/Src/main.c **** /**
 144:Core/Src/main.c ****  * @brief System Clock Configuration
 145:Core/Src/main.c ****  * @retval None
ARM GAS  C:\Users\Bence\AppData\Local\Temp\ccxlmg3d.s 			page 4


 146:Core/Src/main.c ****  */
 147:Core/Src/main.c **** void SystemClock_Config(void)
 148:Core/Src/main.c **** {
 149:Core/Src/main.c ****   RCC_OscInitTypeDef RCC_OscInitStruct = {0};
 150:Core/Src/main.c ****   RCC_ClkInitTypeDef RCC_ClkInitStruct = {0};
 151:Core/Src/main.c **** 
 152:Core/Src/main.c ****   /** Configure the main internal regulator output voltage
 153:Core/Src/main.c ****    */
 154:Core/Src/main.c ****   __HAL_RCC_PWR_CLK_ENABLE();
 155:Core/Src/main.c ****   __HAL_PWR_VOLTAGESCALING_CONFIG(PWR_REGULATOR_VOLTAGE_SCALE1);
 156:Core/Src/main.c **** 
 157:Core/Src/main.c ****   /** Initializes the RCC Oscillators according to the specified parameters
 158:Core/Src/main.c ****    * in the RCC_OscInitTypeDef structure.
 159:Core/Src/main.c ****    */
 160:Core/Src/main.c ****   RCC_OscInitStruct.OscillatorType = RCC_OSCILLATORTYPE_HSE;
 161:Core/Src/main.c ****   RCC_OscInitStruct.HSEState = RCC_HSE_BYPASS;
 162:Core/Src/main.c ****   RCC_OscInitStruct.PLL.PLLState = RCC_PLL_ON;
 163:Core/Src/main.c ****   RCC_OscInitStruct.PLL.PLLSource = RCC_PLLSOURCE_HSE;
 164:Core/Src/main.c ****   RCC_OscInitStruct.PLL.PLLM = 8;
 165:Core/Src/main.c ****   RCC_OscInitStruct.PLL.PLLN = 384;
 166:Core/Src/main.c ****   RCC_OscInitStruct.PLL.PLLP = RCC_PLLP_DIV4;
 167:Core/Src/main.c ****   RCC_OscInitStruct.PLL.PLLQ = 8;
 168:Core/Src/main.c ****   RCC_OscInitStruct.PLL.PLLR = 2;
 169:Core/Src/main.c ****   if (HAL_RCC_OscConfig(&RCC_OscInitStruct) != HAL_OK)
 170:Core/Src/main.c ****   {
 171:Core/Src/main.c ****     Error_Handler();
 172:Core/Src/main.c ****   }
 173:Core/Src/main.c **** 
 174:Core/Src/main.c ****   /** Initializes the CPU, AHB and APB buses clocks
 175:Core/Src/main.c ****    */
 176:Core/Src/main.c ****   RCC_ClkInitStruct.ClockType = RCC_CLOCKTYPE_HCLK | RCC_CLOCKTYPE_SYSCLK | RCC_CLOCKTYPE_PCLK1 | R
 177:Core/Src/main.c ****   RCC_ClkInitStruct.SYSCLKSource = RCC_SYSCLKSOURCE_PLLCLK;
 178:Core/Src/main.c ****   RCC_ClkInitStruct.AHBCLKDivider = RCC_SYSCLK_DIV1;
 179:Core/Src/main.c ****   RCC_ClkInitStruct.APB1CLKDivider = RCC_HCLK_DIV2;
 180:Core/Src/main.c ****   RCC_ClkInitStruct.APB2CLKDivider = RCC_HCLK_DIV1;
 181:Core/Src/main.c **** 
 182:Core/Src/main.c ****   if (HAL_RCC_ClockConfig(&RCC_ClkInitStruct, FLASH_LATENCY_3) != HAL_OK)
 183:Core/Src/main.c ****   {
 184:Core/Src/main.c ****     Error_Handler();
 185:Core/Src/main.c ****   }
 186:Core/Src/main.c **** }
 187:Core/Src/main.c **** 
 188:Core/Src/main.c **** /**
 189:Core/Src/main.c ****  * @brief GPIO Initialization Function
 190:Core/Src/main.c ****  * @param None
 191:Core/Src/main.c ****  * @retval None
 192:Core/Src/main.c ****  */
 193:Core/Src/main.c **** static void MX_GPIO_Init(void)
 194:Core/Src/main.c **** {
  28              		.loc 1 194 1 view -0
  29              		.cfi_startproc
  30              		@ args = 0, pretend = 0, frame = 40
  31              		@ frame_needed = 0, uses_anonymous_args = 0
  32 0000 30B5     		push	{r4, r5, lr}
  33              	.LCFI0:
  34              		.cfi_def_cfa_offset 12
  35              		.cfi_offset 4, -12
ARM GAS  C:\Users\Bence\AppData\Local\Temp\ccxlmg3d.s 			page 5


  36              		.cfi_offset 5, -8
  37              		.cfi_offset 14, -4
  38 0002 8BB0     		sub	sp, sp, #44
  39              	.LCFI1:
  40              		.cfi_def_cfa_offset 56
 195:Core/Src/main.c ****   GPIO_InitTypeDef GPIO_InitStruct = {0};
  41              		.loc 1 195 3 view .LVU1
  42              		.loc 1 195 20 is_stmt 0 view .LVU2
  43 0004 0024     		movs	r4, #0
  44 0006 0594     		str	r4, [sp, #20]
  45 0008 0694     		str	r4, [sp, #24]
  46 000a 0794     		str	r4, [sp, #28]
  47 000c 0894     		str	r4, [sp, #32]
  48 000e 0994     		str	r4, [sp, #36]
 196:Core/Src/main.c ****   /* USER CODE BEGIN MX_GPIO_Init_1 */
 197:Core/Src/main.c ****   /* USER CODE END MX_GPIO_Init_1 */
 198:Core/Src/main.c **** 
 199:Core/Src/main.c ****   /* GPIO Ports Clock Enable */
 200:Core/Src/main.c ****   __HAL_RCC_GPIOC_CLK_ENABLE();
  49              		.loc 1 200 3 is_stmt 1 view .LVU3
  50              	.LBB4:
  51              		.loc 1 200 3 view .LVU4
  52 0010 0194     		str	r4, [sp, #4]
  53              		.loc 1 200 3 view .LVU5
  54 0012 224B     		ldr	r3, .L3
  55 0014 1A6B     		ldr	r2, [r3, #48]
  56 0016 42F00402 		orr	r2, r2, #4
  57 001a 1A63     		str	r2, [r3, #48]
  58              		.loc 1 200 3 view .LVU6
  59 001c 1A6B     		ldr	r2, [r3, #48]
  60 001e 02F00402 		and	r2, r2, #4
  61 0022 0192     		str	r2, [sp, #4]
  62              		.loc 1 200 3 view .LVU7
  63 0024 019A     		ldr	r2, [sp, #4]
  64              	.LBE4:
  65              		.loc 1 200 3 view .LVU8
 201:Core/Src/main.c ****   __HAL_RCC_GPIOH_CLK_ENABLE();
  66              		.loc 1 201 3 view .LVU9
  67              	.LBB5:
  68              		.loc 1 201 3 view .LVU10
  69 0026 0294     		str	r4, [sp, #8]
  70              		.loc 1 201 3 view .LVU11
  71 0028 1A6B     		ldr	r2, [r3, #48]
  72 002a 42F08002 		orr	r2, r2, #128
  73 002e 1A63     		str	r2, [r3, #48]
  74              		.loc 1 201 3 view .LVU12
  75 0030 1A6B     		ldr	r2, [r3, #48]
  76 0032 02F08002 		and	r2, r2, #128
  77 0036 0292     		str	r2, [sp, #8]
  78              		.loc 1 201 3 view .LVU13
  79 0038 029A     		ldr	r2, [sp, #8]
  80              	.LBE5:
  81              		.loc 1 201 3 view .LVU14
 202:Core/Src/main.c ****   __HAL_RCC_GPIOB_CLK_ENABLE();
  82              		.loc 1 202 3 view .LVU15
  83              	.LBB6:
  84              		.loc 1 202 3 view .LVU16
ARM GAS  C:\Users\Bence\AppData\Local\Temp\ccxlmg3d.s 			page 6


  85 003a 0394     		str	r4, [sp, #12]
  86              		.loc 1 202 3 view .LVU17
  87 003c 1A6B     		ldr	r2, [r3, #48]
  88 003e 42F00202 		orr	r2, r2, #2
  89 0042 1A63     		str	r2, [r3, #48]
  90              		.loc 1 202 3 view .LVU18
  91 0044 1A6B     		ldr	r2, [r3, #48]
  92 0046 02F00202 		and	r2, r2, #2
  93 004a 0392     		str	r2, [sp, #12]
  94              		.loc 1 202 3 view .LVU19
  95 004c 039A     		ldr	r2, [sp, #12]
  96              	.LBE6:
  97              		.loc 1 202 3 view .LVU20
 203:Core/Src/main.c ****   __HAL_RCC_GPIOA_CLK_ENABLE();
  98              		.loc 1 203 3 view .LVU21
  99              	.LBB7:
 100              		.loc 1 203 3 view .LVU22
 101 004e 0494     		str	r4, [sp, #16]
 102              		.loc 1 203 3 view .LVU23
 103 0050 1A6B     		ldr	r2, [r3, #48]
 104 0052 42F00102 		orr	r2, r2, #1
 105 0056 1A63     		str	r2, [r3, #48]
 106              		.loc 1 203 3 view .LVU24
 107 0058 1B6B     		ldr	r3, [r3, #48]
 108 005a 03F00103 		and	r3, r3, #1
 109 005e 0493     		str	r3, [sp, #16]
 110              		.loc 1 203 3 view .LVU25
 111 0060 049B     		ldr	r3, [sp, #16]
 112              	.LBE7:
 113              		.loc 1 203 3 view .LVU26
 204:Core/Src/main.c **** 
 205:Core/Src/main.c ****   /*Configure GPIO pin Output Level */
 206:Core/Src/main.c ****   HAL_GPIO_WritePin(GPIOB, LED_Green_Pin | LED_Red_Pin | LED_Blue_Pin, GPIO_PIN_RESET);
 114              		.loc 1 206 3 view .LVU27
 115 0062 0F4D     		ldr	r5, .L3+4
 116 0064 2246     		mov	r2, r4
 117 0066 44F28101 		movw	r1, #16513
 118 006a 2846     		mov	r0, r5
 119 006c FFF7FEFF 		bl	HAL_GPIO_WritePin
 120              	.LVL0:
 207:Core/Src/main.c **** 
 208:Core/Src/main.c ****   /*Configure GPIO pin : UserButton_Pin */
 209:Core/Src/main.c ****   GPIO_InitStruct.Pin = UserButton_Pin;
 121              		.loc 1 209 3 view .LVU28
 122              		.loc 1 209 23 is_stmt 0 view .LVU29
 123 0070 4FF40053 		mov	r3, #8192
 124 0074 0593     		str	r3, [sp, #20]
 210:Core/Src/main.c ****   GPIO_InitStruct.Mode = GPIO_MODE_INPUT;
 125              		.loc 1 210 3 is_stmt 1 view .LVU30
 126              		.loc 1 210 24 is_stmt 0 view .LVU31
 127 0076 0694     		str	r4, [sp, #24]
 211:Core/Src/main.c ****   GPIO_InitStruct.Pull = GPIO_NOPULL;
 128              		.loc 1 211 3 is_stmt 1 view .LVU32
 129              		.loc 1 211 24 is_stmt 0 view .LVU33
 130 0078 0794     		str	r4, [sp, #28]
 212:Core/Src/main.c ****   HAL_GPIO_Init(UserButton_GPIO_Port, &GPIO_InitStruct);
 131              		.loc 1 212 3 is_stmt 1 view .LVU34
ARM GAS  C:\Users\Bence\AppData\Local\Temp\ccxlmg3d.s 			page 7


 132 007a 05A9     		add	r1, sp, #20
 133 007c 0948     		ldr	r0, .L3+8
 134 007e FFF7FEFF 		bl	HAL_GPIO_Init
 135              	.LVL1:
 213:Core/Src/main.c **** 
 214:Core/Src/main.c ****   /*Configure GPIO pins : LED_Green_Pin LED_Red_Pin LED_Blue_Pin */
 215:Core/Src/main.c ****   GPIO_InitStruct.Pin = LED_Green_Pin | LED_Red_Pin | LED_Blue_Pin;
 136              		.loc 1 215 3 view .LVU35
 137              		.loc 1 215 23 is_stmt 0 view .LVU36
 138 0082 44F28103 		movw	r3, #16513
 139 0086 0593     		str	r3, [sp, #20]
 216:Core/Src/main.c ****   GPIO_InitStruct.Mode = GPIO_MODE_OUTPUT_PP;
 140              		.loc 1 216 3 is_stmt 1 view .LVU37
 141              		.loc 1 216 24 is_stmt 0 view .LVU38
 142 0088 0123     		movs	r3, #1
 143 008a 0693     		str	r3, [sp, #24]
 217:Core/Src/main.c ****   GPIO_InitStruct.Pull = GPIO_NOPULL;
 144              		.loc 1 217 3 is_stmt 1 view .LVU39
 145              		.loc 1 217 24 is_stmt 0 view .LVU40
 146 008c 0794     		str	r4, [sp, #28]
 218:Core/Src/main.c ****   GPIO_InitStruct.Speed = GPIO_SPEED_FREQ_LOW;
 147              		.loc 1 218 3 is_stmt 1 view .LVU41
 148              		.loc 1 218 25 is_stmt 0 view .LVU42
 149 008e 0894     		str	r4, [sp, #32]
 219:Core/Src/main.c ****   HAL_GPIO_Init(GPIOB, &GPIO_InitStruct);
 150              		.loc 1 219 3 is_stmt 1 view .LVU43
 151 0090 05A9     		add	r1, sp, #20
 152 0092 2846     		mov	r0, r5
 153 0094 FFF7FEFF 		bl	HAL_GPIO_Init
 154              	.LVL2:
 220:Core/Src/main.c **** 
 221:Core/Src/main.c ****   /* USER CODE BEGIN MX_GPIO_Init_2 */
 222:Core/Src/main.c ****   /* USER CODE END MX_GPIO_Init_2 */
 223:Core/Src/main.c **** }
 155              		.loc 1 223 1 is_stmt 0 view .LVU44
 156 0098 0BB0     		add	sp, sp, #44
 157              	.LCFI2:
 158              		.cfi_def_cfa_offset 12
 159              		@ sp needed
 160 009a 30BD     		pop	{r4, r5, pc}
 161              	.L4:
 162              		.align	2
 163              	.L3:
 164 009c 00380240 		.word	1073887232
 165 00a0 00040240 		.word	1073873920
 166 00a4 00080240 		.word	1073874944
 167              		.cfi_endproc
 168              	.LFE136:
 170              		.section	.text.Error_Handler,"ax",%progbits
 171              		.align	1
 172              		.global	Error_Handler
 173              		.syntax unified
 174              		.thumb
 175              		.thumb_func
 177              	Error_Handler:
 178              	.LFB137:
 224:Core/Src/main.c **** 
ARM GAS  C:\Users\Bence\AppData\Local\Temp\ccxlmg3d.s 			page 8


 225:Core/Src/main.c **** /* USER CODE BEGIN 4 */
 226:Core/Src/main.c **** 
 227:Core/Src/main.c **** /* USER CODE END 4 */
 228:Core/Src/main.c **** 
 229:Core/Src/main.c **** /**
 230:Core/Src/main.c ****  * @brief  This function is executed in case of error occurrence.
 231:Core/Src/main.c ****  * @retval None
 232:Core/Src/main.c ****  */
 233:Core/Src/main.c **** void Error_Handler(void)
 234:Core/Src/main.c **** {
 179              		.loc 1 234 1 is_stmt 1 view -0
 180              		.cfi_startproc
 181              		@ Volatile: function does not return.
 182              		@ args = 0, pretend = 0, frame = 0
 183              		@ frame_needed = 0, uses_anonymous_args = 0
 184              		@ link register save eliminated.
 235:Core/Src/main.c ****   /* USER CODE BEGIN Error_Handler_Debug */
 236:Core/Src/main.c ****   /* User can add his own implementation to report the HAL error return state */
 237:Core/Src/main.c ****   __disable_irq();
 185              		.loc 1 237 3 view .LVU46
 186              	.LBB8:
 187              	.LBI8:
 188              		.file 2 "Drivers/CMSIS/Include/cmsis_gcc.h"
   1:Drivers/CMSIS/Include/cmsis_gcc.h **** /**************************************************************************//**
   2:Drivers/CMSIS/Include/cmsis_gcc.h ****  * @file     cmsis_gcc.h
   3:Drivers/CMSIS/Include/cmsis_gcc.h ****  * @brief    CMSIS compiler GCC header file
   4:Drivers/CMSIS/Include/cmsis_gcc.h ****  * @version  V5.0.4
   5:Drivers/CMSIS/Include/cmsis_gcc.h ****  * @date     09. April 2018
   6:Drivers/CMSIS/Include/cmsis_gcc.h ****  ******************************************************************************/
   7:Drivers/CMSIS/Include/cmsis_gcc.h **** /*
   8:Drivers/CMSIS/Include/cmsis_gcc.h ****  * Copyright (c) 2009-2018 Arm Limited. All rights reserved.
   9:Drivers/CMSIS/Include/cmsis_gcc.h ****  *
  10:Drivers/CMSIS/Include/cmsis_gcc.h ****  * SPDX-License-Identifier: Apache-2.0
  11:Drivers/CMSIS/Include/cmsis_gcc.h ****  *
  12:Drivers/CMSIS/Include/cmsis_gcc.h ****  * Licensed under the Apache License, Version 2.0 (the License); you may
  13:Drivers/CMSIS/Include/cmsis_gcc.h ****  * not use this file except in compliance with the License.
  14:Drivers/CMSIS/Include/cmsis_gcc.h ****  * You may obtain a copy of the License at
  15:Drivers/CMSIS/Include/cmsis_gcc.h ****  *
  16:Drivers/CMSIS/Include/cmsis_gcc.h ****  * www.apache.org/licenses/LICENSE-2.0
  17:Drivers/CMSIS/Include/cmsis_gcc.h ****  *
  18:Drivers/CMSIS/Include/cmsis_gcc.h ****  * Unless required by applicable law or agreed to in writing, software
  19:Drivers/CMSIS/Include/cmsis_gcc.h ****  * distributed under the License is distributed on an AS IS BASIS, WITHOUT
  20:Drivers/CMSIS/Include/cmsis_gcc.h ****  * WARRANTIES OR CONDITIONS OF ANY KIND, either express or implied.
  21:Drivers/CMSIS/Include/cmsis_gcc.h ****  * See the License for the specific language governing permissions and
  22:Drivers/CMSIS/Include/cmsis_gcc.h ****  * limitations under the License.
  23:Drivers/CMSIS/Include/cmsis_gcc.h ****  */
  24:Drivers/CMSIS/Include/cmsis_gcc.h **** 
  25:Drivers/CMSIS/Include/cmsis_gcc.h **** #ifndef __CMSIS_GCC_H
  26:Drivers/CMSIS/Include/cmsis_gcc.h **** #define __CMSIS_GCC_H
  27:Drivers/CMSIS/Include/cmsis_gcc.h **** 
  28:Drivers/CMSIS/Include/cmsis_gcc.h **** /* ignore some GCC warnings */
  29:Drivers/CMSIS/Include/cmsis_gcc.h **** #pragma GCC diagnostic push
  30:Drivers/CMSIS/Include/cmsis_gcc.h **** #pragma GCC diagnostic ignored "-Wsign-conversion"
  31:Drivers/CMSIS/Include/cmsis_gcc.h **** #pragma GCC diagnostic ignored "-Wconversion"
  32:Drivers/CMSIS/Include/cmsis_gcc.h **** #pragma GCC diagnostic ignored "-Wunused-parameter"
  33:Drivers/CMSIS/Include/cmsis_gcc.h **** 
  34:Drivers/CMSIS/Include/cmsis_gcc.h **** /* Fallback for __has_builtin */
ARM GAS  C:\Users\Bence\AppData\Local\Temp\ccxlmg3d.s 			page 9


  35:Drivers/CMSIS/Include/cmsis_gcc.h **** #ifndef __has_builtin
  36:Drivers/CMSIS/Include/cmsis_gcc.h ****   #define __has_builtin(x) (0)
  37:Drivers/CMSIS/Include/cmsis_gcc.h **** #endif
  38:Drivers/CMSIS/Include/cmsis_gcc.h **** 
  39:Drivers/CMSIS/Include/cmsis_gcc.h **** /* CMSIS compiler specific defines */
  40:Drivers/CMSIS/Include/cmsis_gcc.h **** #ifndef   __ASM
  41:Drivers/CMSIS/Include/cmsis_gcc.h ****   #define __ASM                                  __asm
  42:Drivers/CMSIS/Include/cmsis_gcc.h **** #endif
  43:Drivers/CMSIS/Include/cmsis_gcc.h **** #ifndef   __INLINE
  44:Drivers/CMSIS/Include/cmsis_gcc.h ****   #define __INLINE                               inline
  45:Drivers/CMSIS/Include/cmsis_gcc.h **** #endif
  46:Drivers/CMSIS/Include/cmsis_gcc.h **** #ifndef   __STATIC_INLINE
  47:Drivers/CMSIS/Include/cmsis_gcc.h ****   #define __STATIC_INLINE                        static inline
  48:Drivers/CMSIS/Include/cmsis_gcc.h **** #endif
  49:Drivers/CMSIS/Include/cmsis_gcc.h **** #ifndef   __STATIC_FORCEINLINE                 
  50:Drivers/CMSIS/Include/cmsis_gcc.h ****   #define __STATIC_FORCEINLINE                   __attribute__((always_inline)) static inline
  51:Drivers/CMSIS/Include/cmsis_gcc.h **** #endif                                           
  52:Drivers/CMSIS/Include/cmsis_gcc.h **** #ifndef   __NO_RETURN
  53:Drivers/CMSIS/Include/cmsis_gcc.h ****   #define __NO_RETURN                            __attribute__((__noreturn__))
  54:Drivers/CMSIS/Include/cmsis_gcc.h **** #endif
  55:Drivers/CMSIS/Include/cmsis_gcc.h **** #ifndef   __USED
  56:Drivers/CMSIS/Include/cmsis_gcc.h ****   #define __USED                                 __attribute__((used))
  57:Drivers/CMSIS/Include/cmsis_gcc.h **** #endif
  58:Drivers/CMSIS/Include/cmsis_gcc.h **** #ifndef   __WEAK
  59:Drivers/CMSIS/Include/cmsis_gcc.h ****   #define __WEAK                                 __attribute__((weak))
  60:Drivers/CMSIS/Include/cmsis_gcc.h **** #endif
  61:Drivers/CMSIS/Include/cmsis_gcc.h **** #ifndef   __PACKED
  62:Drivers/CMSIS/Include/cmsis_gcc.h ****   #define __PACKED                               __attribute__((packed, aligned(1)))
  63:Drivers/CMSIS/Include/cmsis_gcc.h **** #endif
  64:Drivers/CMSIS/Include/cmsis_gcc.h **** #ifndef   __PACKED_STRUCT
  65:Drivers/CMSIS/Include/cmsis_gcc.h ****   #define __PACKED_STRUCT                        struct __attribute__((packed, aligned(1)))
  66:Drivers/CMSIS/Include/cmsis_gcc.h **** #endif
  67:Drivers/CMSIS/Include/cmsis_gcc.h **** #ifndef   __PACKED_UNION
  68:Drivers/CMSIS/Include/cmsis_gcc.h ****   #define __PACKED_UNION                         union __attribute__((packed, aligned(1)))
  69:Drivers/CMSIS/Include/cmsis_gcc.h **** #endif
  70:Drivers/CMSIS/Include/cmsis_gcc.h **** #ifndef   __UNALIGNED_UINT32        /* deprecated */
  71:Drivers/CMSIS/Include/cmsis_gcc.h ****   #pragma GCC diagnostic push
  72:Drivers/CMSIS/Include/cmsis_gcc.h ****   #pragma GCC diagnostic ignored "-Wpacked"
  73:Drivers/CMSIS/Include/cmsis_gcc.h ****   #pragma GCC diagnostic ignored "-Wattributes"
  74:Drivers/CMSIS/Include/cmsis_gcc.h ****   struct __attribute__((packed)) T_UINT32 { uint32_t v; };
  75:Drivers/CMSIS/Include/cmsis_gcc.h ****   #pragma GCC diagnostic pop
  76:Drivers/CMSIS/Include/cmsis_gcc.h ****   #define __UNALIGNED_UINT32(x)                  (((struct T_UINT32 *)(x))->v)
  77:Drivers/CMSIS/Include/cmsis_gcc.h **** #endif
  78:Drivers/CMSIS/Include/cmsis_gcc.h **** #ifndef   __UNALIGNED_UINT16_WRITE
  79:Drivers/CMSIS/Include/cmsis_gcc.h ****   #pragma GCC diagnostic push
  80:Drivers/CMSIS/Include/cmsis_gcc.h ****   #pragma GCC diagnostic ignored "-Wpacked"
  81:Drivers/CMSIS/Include/cmsis_gcc.h ****   #pragma GCC diagnostic ignored "-Wattributes"
  82:Drivers/CMSIS/Include/cmsis_gcc.h ****   __PACKED_STRUCT T_UINT16_WRITE { uint16_t v; };
  83:Drivers/CMSIS/Include/cmsis_gcc.h ****   #pragma GCC diagnostic pop
  84:Drivers/CMSIS/Include/cmsis_gcc.h ****   #define __UNALIGNED_UINT16_WRITE(addr, val)    (void)((((struct T_UINT16_WRITE *)(void *)(addr))-
  85:Drivers/CMSIS/Include/cmsis_gcc.h **** #endif
  86:Drivers/CMSIS/Include/cmsis_gcc.h **** #ifndef   __UNALIGNED_UINT16_READ
  87:Drivers/CMSIS/Include/cmsis_gcc.h ****   #pragma GCC diagnostic push
  88:Drivers/CMSIS/Include/cmsis_gcc.h ****   #pragma GCC diagnostic ignored "-Wpacked"
  89:Drivers/CMSIS/Include/cmsis_gcc.h ****   #pragma GCC diagnostic ignored "-Wattributes"
  90:Drivers/CMSIS/Include/cmsis_gcc.h ****   __PACKED_STRUCT T_UINT16_READ { uint16_t v; };
  91:Drivers/CMSIS/Include/cmsis_gcc.h ****   #pragma GCC diagnostic pop
ARM GAS  C:\Users\Bence\AppData\Local\Temp\ccxlmg3d.s 			page 10


  92:Drivers/CMSIS/Include/cmsis_gcc.h ****   #define __UNALIGNED_UINT16_READ(addr)          (((const struct T_UINT16_READ *)(const void *)(add
  93:Drivers/CMSIS/Include/cmsis_gcc.h **** #endif
  94:Drivers/CMSIS/Include/cmsis_gcc.h **** #ifndef   __UNALIGNED_UINT32_WRITE
  95:Drivers/CMSIS/Include/cmsis_gcc.h ****   #pragma GCC diagnostic push
  96:Drivers/CMSIS/Include/cmsis_gcc.h ****   #pragma GCC diagnostic ignored "-Wpacked"
  97:Drivers/CMSIS/Include/cmsis_gcc.h ****   #pragma GCC diagnostic ignored "-Wattributes"
  98:Drivers/CMSIS/Include/cmsis_gcc.h ****   __PACKED_STRUCT T_UINT32_WRITE { uint32_t v; };
  99:Drivers/CMSIS/Include/cmsis_gcc.h ****   #pragma GCC diagnostic pop
 100:Drivers/CMSIS/Include/cmsis_gcc.h ****   #define __UNALIGNED_UINT32_WRITE(addr, val)    (void)((((struct T_UINT32_WRITE *)(void *)(addr))-
 101:Drivers/CMSIS/Include/cmsis_gcc.h **** #endif
 102:Drivers/CMSIS/Include/cmsis_gcc.h **** #ifndef   __UNALIGNED_UINT32_READ
 103:Drivers/CMSIS/Include/cmsis_gcc.h ****   #pragma GCC diagnostic push
 104:Drivers/CMSIS/Include/cmsis_gcc.h ****   #pragma GCC diagnostic ignored "-Wpacked"
 105:Drivers/CMSIS/Include/cmsis_gcc.h ****   #pragma GCC diagnostic ignored "-Wattributes"
 106:Drivers/CMSIS/Include/cmsis_gcc.h ****   __PACKED_STRUCT T_UINT32_READ { uint32_t v; };
 107:Drivers/CMSIS/Include/cmsis_gcc.h ****   #pragma GCC diagnostic pop
 108:Drivers/CMSIS/Include/cmsis_gcc.h ****   #define __UNALIGNED_UINT32_READ(addr)          (((const struct T_UINT32_READ *)(const void *)(add
 109:Drivers/CMSIS/Include/cmsis_gcc.h **** #endif
 110:Drivers/CMSIS/Include/cmsis_gcc.h **** #ifndef   __ALIGNED
 111:Drivers/CMSIS/Include/cmsis_gcc.h ****   #define __ALIGNED(x)                           __attribute__((aligned(x)))
 112:Drivers/CMSIS/Include/cmsis_gcc.h **** #endif
 113:Drivers/CMSIS/Include/cmsis_gcc.h **** #ifndef   __RESTRICT
 114:Drivers/CMSIS/Include/cmsis_gcc.h ****   #define __RESTRICT                             __restrict
 115:Drivers/CMSIS/Include/cmsis_gcc.h **** #endif
 116:Drivers/CMSIS/Include/cmsis_gcc.h **** 
 117:Drivers/CMSIS/Include/cmsis_gcc.h **** 
 118:Drivers/CMSIS/Include/cmsis_gcc.h **** /* ###########################  Core Function Access  ########################### */
 119:Drivers/CMSIS/Include/cmsis_gcc.h **** /** \ingroup  CMSIS_Core_FunctionInterface
 120:Drivers/CMSIS/Include/cmsis_gcc.h ****     \defgroup CMSIS_Core_RegAccFunctions CMSIS Core Register Access Functions
 121:Drivers/CMSIS/Include/cmsis_gcc.h ****   @{
 122:Drivers/CMSIS/Include/cmsis_gcc.h ****  */
 123:Drivers/CMSIS/Include/cmsis_gcc.h **** 
 124:Drivers/CMSIS/Include/cmsis_gcc.h **** /**
 125:Drivers/CMSIS/Include/cmsis_gcc.h ****   \brief   Enable IRQ Interrupts
 126:Drivers/CMSIS/Include/cmsis_gcc.h ****   \details Enables IRQ interrupts by clearing the I-bit in the CPSR.
 127:Drivers/CMSIS/Include/cmsis_gcc.h ****            Can only be executed in Privileged modes.
 128:Drivers/CMSIS/Include/cmsis_gcc.h ****  */
 129:Drivers/CMSIS/Include/cmsis_gcc.h **** __STATIC_FORCEINLINE void __enable_irq(void)
 130:Drivers/CMSIS/Include/cmsis_gcc.h **** {
 131:Drivers/CMSIS/Include/cmsis_gcc.h ****   __ASM volatile ("cpsie i" : : : "memory");
 132:Drivers/CMSIS/Include/cmsis_gcc.h **** }
 133:Drivers/CMSIS/Include/cmsis_gcc.h **** 
 134:Drivers/CMSIS/Include/cmsis_gcc.h **** 
 135:Drivers/CMSIS/Include/cmsis_gcc.h **** /**
 136:Drivers/CMSIS/Include/cmsis_gcc.h ****   \brief   Disable IRQ Interrupts
 137:Drivers/CMSIS/Include/cmsis_gcc.h ****   \details Disables IRQ interrupts by setting the I-bit in the CPSR.
 138:Drivers/CMSIS/Include/cmsis_gcc.h ****            Can only be executed in Privileged modes.
 139:Drivers/CMSIS/Include/cmsis_gcc.h ****  */
 140:Drivers/CMSIS/Include/cmsis_gcc.h **** __STATIC_FORCEINLINE void __disable_irq(void)
 189              		.loc 2 140 27 view .LVU47
 190              	.LBB9:
 141:Drivers/CMSIS/Include/cmsis_gcc.h **** {
 142:Drivers/CMSIS/Include/cmsis_gcc.h ****   __ASM volatile ("cpsid i" : : : "memory");
 191              		.loc 2 142 3 view .LVU48
 192              		.syntax unified
 193              	@ 142 "Drivers/CMSIS/Include/cmsis_gcc.h" 1
 194 0000 72B6     		cpsid i
ARM GAS  C:\Users\Bence\AppData\Local\Temp\ccxlmg3d.s 			page 11


 195              	@ 0 "" 2
 196              		.thumb
 197              		.syntax unified
 198              	.L6:
 199              	.LBE9:
 200              	.LBE8:
 238:Core/Src/main.c ****   while (1)
 201              		.loc 1 238 3 discriminator 1 view .LVU49
 239:Core/Src/main.c ****   {
 240:Core/Src/main.c ****   }
 202              		.loc 1 240 3 discriminator 1 view .LVU50
 238:Core/Src/main.c ****   while (1)
 203              		.loc 1 238 9 discriminator 1 view .LVU51
 204 0002 FEE7     		b	.L6
 205              		.cfi_endproc
 206              	.LFE137:
 208              		.section	.text.SystemClock_Config,"ax",%progbits
 209              		.align	1
 210              		.global	SystemClock_Config
 211              		.syntax unified
 212              		.thumb
 213              		.thumb_func
 215              	SystemClock_Config:
 216              	.LFB135:
 148:Core/Src/main.c ****   RCC_OscInitTypeDef RCC_OscInitStruct = {0};
 217              		.loc 1 148 1 view -0
 218              		.cfi_startproc
 219              		@ args = 0, pretend = 0, frame = 80
 220              		@ frame_needed = 0, uses_anonymous_args = 0
 221 0000 00B5     		push	{lr}
 222              	.LCFI3:
 223              		.cfi_def_cfa_offset 4
 224              		.cfi_offset 14, -4
 225 0002 95B0     		sub	sp, sp, #84
 226              	.LCFI4:
 227              		.cfi_def_cfa_offset 88
 149:Core/Src/main.c ****   RCC_ClkInitTypeDef RCC_ClkInitStruct = {0};
 228              		.loc 1 149 3 view .LVU53
 149:Core/Src/main.c ****   RCC_ClkInitTypeDef RCC_ClkInitStruct = {0};
 229              		.loc 1 149 22 is_stmt 0 view .LVU54
 230 0004 3422     		movs	r2, #52
 231 0006 0021     		movs	r1, #0
 232 0008 07A8     		add	r0, sp, #28
 233 000a FFF7FEFF 		bl	memset
 234              	.LVL3:
 150:Core/Src/main.c **** 
 235              		.loc 1 150 3 is_stmt 1 view .LVU55
 150:Core/Src/main.c **** 
 236              		.loc 1 150 22 is_stmt 0 view .LVU56
 237 000e 0023     		movs	r3, #0
 238 0010 0293     		str	r3, [sp, #8]
 239 0012 0393     		str	r3, [sp, #12]
 240 0014 0493     		str	r3, [sp, #16]
 241 0016 0593     		str	r3, [sp, #20]
 242 0018 0693     		str	r3, [sp, #24]
 154:Core/Src/main.c ****   __HAL_PWR_VOLTAGESCALING_CONFIG(PWR_REGULATOR_VOLTAGE_SCALE1);
 243              		.loc 1 154 3 is_stmt 1 view .LVU57
ARM GAS  C:\Users\Bence\AppData\Local\Temp\ccxlmg3d.s 			page 12


 244              	.LBB10:
 154:Core/Src/main.c ****   __HAL_PWR_VOLTAGESCALING_CONFIG(PWR_REGULATOR_VOLTAGE_SCALE1);
 245              		.loc 1 154 3 view .LVU58
 246 001a 0093     		str	r3, [sp]
 154:Core/Src/main.c ****   __HAL_PWR_VOLTAGESCALING_CONFIG(PWR_REGULATOR_VOLTAGE_SCALE1);
 247              		.loc 1 154 3 view .LVU59
 248 001c 204A     		ldr	r2, .L13
 249 001e 116C     		ldr	r1, [r2, #64]
 250 0020 41F08051 		orr	r1, r1, #268435456
 251 0024 1164     		str	r1, [r2, #64]
 154:Core/Src/main.c ****   __HAL_PWR_VOLTAGESCALING_CONFIG(PWR_REGULATOR_VOLTAGE_SCALE1);
 252              		.loc 1 154 3 view .LVU60
 253 0026 126C     		ldr	r2, [r2, #64]
 254 0028 02F08052 		and	r2, r2, #268435456
 255 002c 0092     		str	r2, [sp]
 154:Core/Src/main.c ****   __HAL_PWR_VOLTAGESCALING_CONFIG(PWR_REGULATOR_VOLTAGE_SCALE1);
 256              		.loc 1 154 3 view .LVU61
 257 002e 009A     		ldr	r2, [sp]
 258              	.LBE10:
 154:Core/Src/main.c ****   __HAL_PWR_VOLTAGESCALING_CONFIG(PWR_REGULATOR_VOLTAGE_SCALE1);
 259              		.loc 1 154 3 view .LVU62
 155:Core/Src/main.c **** 
 260              		.loc 1 155 3 view .LVU63
 261              	.LBB11:
 155:Core/Src/main.c **** 
 262              		.loc 1 155 3 view .LVU64
 263 0030 0193     		str	r3, [sp, #4]
 155:Core/Src/main.c **** 
 264              		.loc 1 155 3 view .LVU65
 265 0032 1C4B     		ldr	r3, .L13+4
 266 0034 1A68     		ldr	r2, [r3]
 267 0036 42F44042 		orr	r2, r2, #49152
 268 003a 1A60     		str	r2, [r3]
 155:Core/Src/main.c **** 
 269              		.loc 1 155 3 view .LVU66
 270 003c 1B68     		ldr	r3, [r3]
 271 003e 03F44043 		and	r3, r3, #49152
 272 0042 0193     		str	r3, [sp, #4]
 155:Core/Src/main.c **** 
 273              		.loc 1 155 3 view .LVU67
 274 0044 019B     		ldr	r3, [sp, #4]
 275              	.LBE11:
 155:Core/Src/main.c **** 
 276              		.loc 1 155 3 view .LVU68
 160:Core/Src/main.c ****   RCC_OscInitStruct.HSEState = RCC_HSE_BYPASS;
 277              		.loc 1 160 3 view .LVU69
 160:Core/Src/main.c ****   RCC_OscInitStruct.HSEState = RCC_HSE_BYPASS;
 278              		.loc 1 160 36 is_stmt 0 view .LVU70
 279 0046 0123     		movs	r3, #1
 280 0048 0793     		str	r3, [sp, #28]
 161:Core/Src/main.c ****   RCC_OscInitStruct.PLL.PLLState = RCC_PLL_ON;
 281              		.loc 1 161 3 is_stmt 1 view .LVU71
 161:Core/Src/main.c ****   RCC_OscInitStruct.PLL.PLLState = RCC_PLL_ON;
 282              		.loc 1 161 30 is_stmt 0 view .LVU72
 283 004a 4FF4A023 		mov	r3, #327680
 284 004e 0893     		str	r3, [sp, #32]
 162:Core/Src/main.c ****   RCC_OscInitStruct.PLL.PLLSource = RCC_PLLSOURCE_HSE;
ARM GAS  C:\Users\Bence\AppData\Local\Temp\ccxlmg3d.s 			page 13


 285              		.loc 1 162 3 is_stmt 1 view .LVU73
 162:Core/Src/main.c ****   RCC_OscInitStruct.PLL.PLLSource = RCC_PLLSOURCE_HSE;
 286              		.loc 1 162 34 is_stmt 0 view .LVU74
 287 0050 0223     		movs	r3, #2
 288 0052 0D93     		str	r3, [sp, #52]
 163:Core/Src/main.c ****   RCC_OscInitStruct.PLL.PLLM = 8;
 289              		.loc 1 163 3 is_stmt 1 view .LVU75
 163:Core/Src/main.c ****   RCC_OscInitStruct.PLL.PLLM = 8;
 290              		.loc 1 163 35 is_stmt 0 view .LVU76
 291 0054 4FF48002 		mov	r2, #4194304
 292 0058 0E92     		str	r2, [sp, #56]
 164:Core/Src/main.c ****   RCC_OscInitStruct.PLL.PLLN = 384;
 293              		.loc 1 164 3 is_stmt 1 view .LVU77
 164:Core/Src/main.c ****   RCC_OscInitStruct.PLL.PLLN = 384;
 294              		.loc 1 164 30 is_stmt 0 view .LVU78
 295 005a 0822     		movs	r2, #8
 296 005c 0F92     		str	r2, [sp, #60]
 165:Core/Src/main.c ****   RCC_OscInitStruct.PLL.PLLP = RCC_PLLP_DIV4;
 297              		.loc 1 165 3 is_stmt 1 view .LVU79
 165:Core/Src/main.c ****   RCC_OscInitStruct.PLL.PLLP = RCC_PLLP_DIV4;
 298              		.loc 1 165 30 is_stmt 0 view .LVU80
 299 005e 4FF4C071 		mov	r1, #384
 300 0062 1091     		str	r1, [sp, #64]
 166:Core/Src/main.c ****   RCC_OscInitStruct.PLL.PLLQ = 8;
 301              		.loc 1 166 3 is_stmt 1 view .LVU81
 166:Core/Src/main.c ****   RCC_OscInitStruct.PLL.PLLQ = 8;
 302              		.loc 1 166 30 is_stmt 0 view .LVU82
 303 0064 0421     		movs	r1, #4
 304 0066 1191     		str	r1, [sp, #68]
 167:Core/Src/main.c ****   RCC_OscInitStruct.PLL.PLLR = 2;
 305              		.loc 1 167 3 is_stmt 1 view .LVU83
 167:Core/Src/main.c ****   RCC_OscInitStruct.PLL.PLLR = 2;
 306              		.loc 1 167 30 is_stmt 0 view .LVU84
 307 0068 1292     		str	r2, [sp, #72]
 168:Core/Src/main.c ****   if (HAL_RCC_OscConfig(&RCC_OscInitStruct) != HAL_OK)
 308              		.loc 1 168 3 is_stmt 1 view .LVU85
 168:Core/Src/main.c ****   if (HAL_RCC_OscConfig(&RCC_OscInitStruct) != HAL_OK)
 309              		.loc 1 168 30 is_stmt 0 view .LVU86
 310 006a 1393     		str	r3, [sp, #76]
 169:Core/Src/main.c ****   {
 311              		.loc 1 169 3 is_stmt 1 view .LVU87
 169:Core/Src/main.c ****   {
 312              		.loc 1 169 7 is_stmt 0 view .LVU88
 313 006c 07A8     		add	r0, sp, #28
 314 006e FFF7FEFF 		bl	HAL_RCC_OscConfig
 315              	.LVL4:
 169:Core/Src/main.c ****   {
 316              		.loc 1 169 6 view .LVU89
 317 0072 88B9     		cbnz	r0, .L11
 176:Core/Src/main.c ****   RCC_ClkInitStruct.SYSCLKSource = RCC_SYSCLKSOURCE_PLLCLK;
 318              		.loc 1 176 3 is_stmt 1 view .LVU90
 176:Core/Src/main.c ****   RCC_ClkInitStruct.SYSCLKSource = RCC_SYSCLKSOURCE_PLLCLK;
 319              		.loc 1 176 31 is_stmt 0 view .LVU91
 320 0074 0F23     		movs	r3, #15
 321 0076 0293     		str	r3, [sp, #8]
 177:Core/Src/main.c ****   RCC_ClkInitStruct.AHBCLKDivider = RCC_SYSCLK_DIV1;
 322              		.loc 1 177 3 is_stmt 1 view .LVU92
ARM GAS  C:\Users\Bence\AppData\Local\Temp\ccxlmg3d.s 			page 14


 177:Core/Src/main.c ****   RCC_ClkInitStruct.AHBCLKDivider = RCC_SYSCLK_DIV1;
 323              		.loc 1 177 34 is_stmt 0 view .LVU93
 324 0078 0223     		movs	r3, #2
 325 007a 0393     		str	r3, [sp, #12]
 178:Core/Src/main.c ****   RCC_ClkInitStruct.APB1CLKDivider = RCC_HCLK_DIV2;
 326              		.loc 1 178 3 is_stmt 1 view .LVU94
 178:Core/Src/main.c ****   RCC_ClkInitStruct.APB1CLKDivider = RCC_HCLK_DIV2;
 327              		.loc 1 178 35 is_stmt 0 view .LVU95
 328 007c 0023     		movs	r3, #0
 329 007e 0493     		str	r3, [sp, #16]
 179:Core/Src/main.c ****   RCC_ClkInitStruct.APB2CLKDivider = RCC_HCLK_DIV1;
 330              		.loc 1 179 3 is_stmt 1 view .LVU96
 179:Core/Src/main.c ****   RCC_ClkInitStruct.APB2CLKDivider = RCC_HCLK_DIV1;
 331              		.loc 1 179 36 is_stmt 0 view .LVU97
 332 0080 4FF48052 		mov	r2, #4096
 333 0084 0592     		str	r2, [sp, #20]
 180:Core/Src/main.c **** 
 334              		.loc 1 180 3 is_stmt 1 view .LVU98
 180:Core/Src/main.c **** 
 335              		.loc 1 180 36 is_stmt 0 view .LVU99
 336 0086 0693     		str	r3, [sp, #24]
 182:Core/Src/main.c ****   {
 337              		.loc 1 182 3 is_stmt 1 view .LVU100
 182:Core/Src/main.c ****   {
 338              		.loc 1 182 7 is_stmt 0 view .LVU101
 339 0088 0321     		movs	r1, #3
 340 008a 02A8     		add	r0, sp, #8
 341 008c FFF7FEFF 		bl	HAL_RCC_ClockConfig
 342              	.LVL5:
 182:Core/Src/main.c ****   {
 343              		.loc 1 182 6 view .LVU102
 344 0090 20B9     		cbnz	r0, .L12
 186:Core/Src/main.c **** 
 345              		.loc 1 186 1 view .LVU103
 346 0092 15B0     		add	sp, sp, #84
 347              	.LCFI5:
 348              		.cfi_remember_state
 349              		.cfi_def_cfa_offset 4
 350              		@ sp needed
 351 0094 5DF804FB 		ldr	pc, [sp], #4
 352              	.L11:
 353              	.LCFI6:
 354              		.cfi_restore_state
 171:Core/Src/main.c ****   }
 355              		.loc 1 171 5 is_stmt 1 view .LVU104
 356 0098 FFF7FEFF 		bl	Error_Handler
 357              	.LVL6:
 358              	.L12:
 184:Core/Src/main.c ****   }
 359              		.loc 1 184 5 view .LVU105
 360 009c FFF7FEFF 		bl	Error_Handler
 361              	.LVL7:
 362              	.L14:
 363              		.align	2
 364              	.L13:
 365 00a0 00380240 		.word	1073887232
 366 00a4 00700040 		.word	1073770496
ARM GAS  C:\Users\Bence\AppData\Local\Temp\ccxlmg3d.s 			page 15


 367              		.cfi_endproc
 368              	.LFE135:
 370              		.section	.text.main,"ax",%progbits
 371              		.align	1
 372              		.global	main
 373              		.syntax unified
 374              		.thumb
 375              		.thumb_func
 377              	main:
 378              	.LFB134:
  71:Core/Src/main.c ****   /* USER CODE BEGIN 1 */
 379              		.loc 1 71 1 view -0
 380              		.cfi_startproc
 381              		@ Volatile: function does not return.
 382              		@ args = 0, pretend = 0, frame = 0
 383              		@ frame_needed = 0, uses_anonymous_args = 0
 384 0000 08B5     		push	{r3, lr}
 385              	.LCFI7:
 386              		.cfi_def_cfa_offset 8
 387              		.cfi_offset 3, -8
 388              		.cfi_offset 14, -4
  73:Core/Src/main.c **** 
 389              		.loc 1 73 3 view .LVU107
 390 0002 FFF7FEFF 		bl	initDataprovider
 391              	.LVL8:
  80:Core/Src/main.c **** 
 392              		.loc 1 80 3 view .LVU108
 393 0006 FFF7FEFF 		bl	HAL_Init
 394              	.LVL9:
  87:Core/Src/main.c **** 
 395              		.loc 1 87 3 view .LVU109
 396 000a FFF7FEFF 		bl	SystemClock_Config
 397              	.LVL10:
  94:Core/Src/main.c ****   MX_USB_DEVICE_Init();
 398              		.loc 1 94 3 view .LVU110
 399 000e FFF7FEFF 		bl	MX_GPIO_Init
 400              	.LVL11:
  95:Core/Src/main.c ****   /* USER CODE BEGIN 2 */
 401              		.loc 1 95 3 view .LVU111
 402 0012 FFF7FEFF 		bl	MX_USB_DEVICE_Init
 403              	.LVL12:
 404 0016 36E0     		b	.L16
 405              	.L22:
 108:Core/Src/main.c ****     {
 406              		.loc 1 108 27 is_stmt 0 discriminator 1 view .LVU112
 407 0018 FFF7FEFF 		bl	getLED_Blue_isActive
 408              	.LVL13:
 409 001c 0446     		mov	r4, r0
 108:Core/Src/main.c ****     {
 410              		.loc 1 108 58 discriminator 1 view .LVU113
 411 001e FFF7FEFF 		bl	getLED_Blue_currentState
 412              	.LVL14:
 108:Core/Src/main.c ****     {
 413              		.loc 1 108 23 discriminator 1 view .LVU114
 414 0022 8442     		cmp	r4, r0
 415 0024 3BD0     		beq	.L17
 110:Core/Src/main.c ****       setLED_Blue_currentState((int)getLED_Blue_isActive());
ARM GAS  C:\Users\Bence\AppData\Local\Temp\ccxlmg3d.s 			page 16


 416              		.loc 1 110 7 is_stmt 1 view .LVU115
 417 0026 8021     		movs	r1, #128
 418 0028 3048     		ldr	r0, .L25
 419 002a FFF7FEFF 		bl	HAL_GPIO_TogglePin
 420              	.LVL15:
 111:Core/Src/main.c ****     }
 421              		.loc 1 111 7 view .LVU116
 422 002e FFF7FEFF 		bl	getLED_Blue_isActive
 423              	.LVL16:
 424 0032 FFF7FEFF 		bl	setLED_Blue_currentState
 425              	.LVL17:
 426 0036 36E0     		b	.L18
 427              	.L23:
 113:Core/Src/main.c ****     {
 428              		.loc 1 113 32 is_stmt 0 discriminator 1 view .LVU117
 429 0038 FFF7FEFF 		bl	getLED_Red_isActive
 430              	.LVL18:
 431 003c 0446     		mov	r4, r0
 113:Core/Src/main.c ****     {
 432              		.loc 1 113 62 discriminator 1 view .LVU118
 433 003e FFF7FEFF 		bl	getLED_Red_currentState
 434              	.LVL19:
 113:Core/Src/main.c ****     {
 435              		.loc 1 113 28 discriminator 1 view .LVU119
 436 0042 8442     		cmp	r4, r0
 437 0044 2FD0     		beq	.L18
 115:Core/Src/main.c ****       setLED_Red_currentState((int)getLED_Red_isActive());
 438              		.loc 1 115 7 is_stmt 1 view .LVU120
 439 0046 4FF48041 		mov	r1, #16384
 440 004a 2848     		ldr	r0, .L25
 441 004c FFF7FEFF 		bl	HAL_GPIO_TogglePin
 442              	.LVL20:
 116:Core/Src/main.c ****     }
 443              		.loc 1 116 7 view .LVU121
 444 0050 FFF7FEFF 		bl	getLED_Red_isActive
 445              	.LVL21:
 446 0054 FFF7FEFF 		bl	setLED_Red_currentState
 447              	.LVL22:
 448 0058 25E0     		b	.L18
 449              	.L24:
 121:Core/Src/main.c ****     {
 450              		.loc 1 121 55 is_stmt 0 discriminator 1 view .LVU122
 451 005a 254B     		ldr	r3, .L25+4
 452 005c 1B78     		ldrb	r3, [r3]	@ zero_extendqisi2
 121:Core/Src/main.c ****     {
 453              		.loc 1 121 25 discriminator 1 view .LVU123
 454 005e 012B     		cmp	r3, #1
 455 0060 2AD1     		bne	.L19
 123:Core/Src/main.c ****       memset(bufferForButton, 0, 0x40);
 456              		.loc 1 123 7 is_stmt 1 view .LVU124
 123:Core/Src/main.c ****       memset(bufferForButton, 0, 0x40);
 457              		.loc 1 123 34 is_stmt 0 view .LVU125
 458 0062 0021     		movs	r1, #0
 459 0064 224B     		ldr	r3, .L25+4
 460 0066 1970     		strb	r1, [r3]
 124:Core/Src/main.c ****       bufferForButton[1] = 66; // B
 461              		.loc 1 124 7 is_stmt 1 view .LVU126
ARM GAS  C:\Users\Bence\AppData\Local\Temp\ccxlmg3d.s 			page 17


 462 0068 224C     		ldr	r4, .L25+8
 463 006a 4025     		movs	r5, #64
 464 006c 2A46     		mov	r2, r5
 465 006e 2046     		mov	r0, r4
 466 0070 FFF7FEFF 		bl	memset
 467              	.LVL23:
 125:Core/Src/main.c ****       bufferForButton[2] = 68; // D aka Button Down
 468              		.loc 1 125 7 view .LVU127
 125:Core/Src/main.c ****       bufferForButton[2] = 68; // D aka Button Down
 469              		.loc 1 125 26 is_stmt 0 view .LVU128
 470 0074 4223     		movs	r3, #66
 471 0076 6370     		strb	r3, [r4, #1]
 126:Core/Src/main.c ****       USBD_CUSTOM_HID_SendReport(&hUsbDeviceFS, bufferForButton, 0x40);
 472              		.loc 1 126 7 is_stmt 1 view .LVU129
 126:Core/Src/main.c ****       USBD_CUSTOM_HID_SendReport(&hUsbDeviceFS, bufferForButton, 0x40);
 473              		.loc 1 126 26 is_stmt 0 view .LVU130
 474 0078 4423     		movs	r3, #68
 475 007a A370     		strb	r3, [r4, #2]
 127:Core/Src/main.c ****     }
 476              		.loc 1 127 7 is_stmt 1 view .LVU131
 477 007c 2A46     		mov	r2, r5
 478 007e 2146     		mov	r1, r4
 479 0080 1D48     		ldr	r0, .L25+12
 480 0082 FFF7FEFF 		bl	USBD_CUSTOM_HID_SendReport
 481              	.LVL24:
 482              	.L16:
 102:Core/Src/main.c ****   {
 483              		.loc 1 102 3 view .LVU132
 105:Core/Src/main.c ****     HAL_GPIO_TogglePin(LED_Green_GPIO_Port, LED_Green_Pin);
 484              		.loc 1 105 5 view .LVU133
 105:Core/Src/main.c ****     HAL_GPIO_TogglePin(LED_Green_GPIO_Port, LED_Green_Pin);
 485              		.loc 1 105 15 is_stmt 0 view .LVU134
 486 0086 FFF7FEFF 		bl	getLED_Green_speed
 487              	.LVL25:
 105:Core/Src/main.c ****     HAL_GPIO_TogglePin(LED_Green_GPIO_Port, LED_Green_Pin);
 488              		.loc 1 105 5 view .LVU135
 489 008a FFF7FEFF 		bl	HAL_Delay
 490              	.LVL26:
 106:Core/Src/main.c **** 
 491              		.loc 1 106 5 is_stmt 1 view .LVU136
 492 008e 0121     		movs	r1, #1
 493 0090 1648     		ldr	r0, .L25
 494 0092 FFF7FEFF 		bl	HAL_GPIO_TogglePin
 495              	.LVL27:
 108:Core/Src/main.c ****     {
 496              		.loc 1 108 5 view .LVU137
 108:Core/Src/main.c ****     {
 497              		.loc 1 108 9 is_stmt 0 view .LVU138
 498 0096 FFF7FEFF 		bl	getLDs
 499              	.LVL28:
 108:Core/Src/main.c ****     {
 500              		.loc 1 108 8 view .LVU139
 501 009a 0228     		cmp	r0, #2
 502 009c BCD0     		beq	.L22
 503              	.L17:
 113:Core/Src/main.c ****     {
 504              		.loc 1 113 10 is_stmt 1 view .LVU140
ARM GAS  C:\Users\Bence\AppData\Local\Temp\ccxlmg3d.s 			page 18


 113:Core/Src/main.c ****     {
 505              		.loc 1 113 14 is_stmt 0 view .LVU141
 506 009e FFF7FEFF 		bl	getLDs
 507              	.LVL29:
 113:Core/Src/main.c ****     {
 508              		.loc 1 113 13 view .LVU142
 509 00a2 0328     		cmp	r0, #3
 510 00a4 C8D0     		beq	.L23
 511              	.L18:
 119:Core/Src/main.c **** 
 512              		.loc 1 119 5 is_stmt 1 view .LVU143
 119:Core/Src/main.c **** 
 513              		.loc 1 119 18 is_stmt 0 view .LVU144
 514 00a6 4FF40051 		mov	r1, #8192
 515 00aa 1448     		ldr	r0, .L25+16
 516 00ac FFF7FEFF 		bl	HAL_GPIO_ReadPin
 517              	.LVL30:
 119:Core/Src/main.c **** 
 518              		.loc 1 119 16 view .LVU145
 519 00b0 134B     		ldr	r3, .L25+20
 520 00b2 1870     		strb	r0, [r3]
 121:Core/Src/main.c ****     {
 521              		.loc 1 121 5 is_stmt 1 view .LVU146
 121:Core/Src/main.c ****     {
 522              		.loc 1 121 8 is_stmt 0 view .LVU147
 523 00b4 0128     		cmp	r0, #1
 524 00b6 D0D0     		beq	.L24
 525              	.L19:
 129:Core/Src/main.c ****     {
 526              		.loc 1 129 10 is_stmt 1 view .LVU148
 129:Core/Src/main.c ****     {
 527              		.loc 1 129 13 is_stmt 0 view .LVU149
 528 00b8 0028     		cmp	r0, #0
 529 00ba E4D1     		bne	.L16
 129:Core/Src/main.c ****     {
 530              		.loc 1 129 60 discriminator 1 view .LVU150
 531 00bc 0C4B     		ldr	r3, .L25+4
 532 00be 1B78     		ldrb	r3, [r3]	@ zero_extendqisi2
 129:Core/Src/main.c ****     {
 533              		.loc 1 129 30 discriminator 1 view .LVU151
 534 00c0 002B     		cmp	r3, #0
 535 00c2 E0D1     		bne	.L16
 131:Core/Src/main.c ****       bufferForButton[1] = 66; // B
 536              		.loc 1 131 7 is_stmt 1 view .LVU152
 537 00c4 0B4C     		ldr	r4, .L25+8
 538 00c6 4025     		movs	r5, #64
 539 00c8 2A46     		mov	r2, r5
 540 00ca 0021     		movs	r1, #0
 541 00cc 2046     		mov	r0, r4
 542 00ce FFF7FEFF 		bl	memset
 543              	.LVL31:
 132:Core/Src/main.c ****       bufferForButton[2] = 85; // U aka Button Up
 544              		.loc 1 132 7 view .LVU153
 132:Core/Src/main.c ****       bufferForButton[2] = 85; // U aka Button Up
 545              		.loc 1 132 26 is_stmt 0 view .LVU154
 546 00d2 4223     		movs	r3, #66
 547 00d4 6370     		strb	r3, [r4, #1]
ARM GAS  C:\Users\Bence\AppData\Local\Temp\ccxlmg3d.s 			page 19


 133:Core/Src/main.c ****       USBD_CUSTOM_HID_SendReport(&hUsbDeviceFS, bufferForButton, 0x40);
 548              		.loc 1 133 7 is_stmt 1 view .LVU155
 133:Core/Src/main.c ****       USBD_CUSTOM_HID_SendReport(&hUsbDeviceFS, bufferForButton, 0x40);
 549              		.loc 1 133 26 is_stmt 0 view .LVU156
 550 00d6 5523     		movs	r3, #85
 551 00d8 A370     		strb	r3, [r4, #2]
 134:Core/Src/main.c ****       button_available_to_report = 1;
 552              		.loc 1 134 7 is_stmt 1 view .LVU157
 553 00da 2A46     		mov	r2, r5
 554 00dc 2146     		mov	r1, r4
 555 00de 0648     		ldr	r0, .L25+12
 556 00e0 FFF7FEFF 		bl	USBD_CUSTOM_HID_SendReport
 557              	.LVL32:
 135:Core/Src/main.c ****     }
 558              		.loc 1 135 7 view .LVU158
 135:Core/Src/main.c ****     }
 559              		.loc 1 135 34 is_stmt 0 view .LVU159
 560 00e4 024B     		ldr	r3, .L25+4
 561 00e6 0122     		movs	r2, #1
 562 00e8 1A70     		strb	r2, [r3]
 563 00ea CCE7     		b	.L16
 564              	.L26:
 565              		.align	2
 566              	.L25:
 567 00ec 00040240 		.word	1073873920
 568 00f0 00000000 		.word	.LANCHOR1
 569 00f4 00000000 		.word	.LANCHOR2
 570 00f8 00000000 		.word	hUsbDeviceFS
 571 00fc 00080240 		.word	1073874944
 572 0100 00000000 		.word	.LANCHOR0
 573              		.cfi_endproc
 574              	.LFE134:
 576              		.global	button_available_to_report
 577              		.global	button_val
 578              		.global	bufferForButton
 579              		.section	.bss.bufferForButton,"aw",%nobits
 580              		.align	2
 581              		.set	.LANCHOR2,. + 0
 584              	bufferForButton:
 585 0000 00000000 		.space	64
 585      00000000 
 585      00000000 
 585      00000000 
 585      00000000 
 586              		.section	.bss.button_val,"aw",%nobits
 587              		.set	.LANCHOR0,. + 0
 590              	button_val:
 591 0000 00       		.space	1
 592              		.section	.data.button_available_to_report,"aw"
 593              		.set	.LANCHOR1,. + 0
 596              	button_available_to_report:
 597 0000 01       		.byte	1
 598              		.text
 599              	.Letext0:
 600              		.file 3 "c:\\users\\bence\\.vscode\\extensions\\buzzyelectronics.stm-helper-1.3.0\\armgcc\\arm-non
 601              		.file 4 "c:\\users\\bence\\.vscode\\extensions\\buzzyelectronics.stm-helper-1.3.0\\armgcc\\arm-non
 602              		.file 5 "Drivers/CMSIS/Device/ST/STM32F4xx/Include/stm32f412zx.h"
ARM GAS  C:\Users\Bence\AppData\Local\Temp\ccxlmg3d.s 			page 20


 603              		.file 6 "Drivers/STM32F4xx_HAL_Driver/Inc/stm32f4xx_hal_rcc_ex.h"
 604              		.file 7 "Drivers/STM32F4xx_HAL_Driver/Inc/stm32f4xx_hal_rcc.h"
 605              		.file 8 "Drivers/STM32F4xx_HAL_Driver/Inc/stm32f4xx_hal_gpio.h"
 606              		.file 9 "Drivers/STM32F4xx_HAL_Driver/Inc/stm32f4xx_hal_def.h"
 607              		.file 10 "Middlewares/ST/STM32_USB_Device_Library/Core/Inc/usbd_def.h"
 608              		.file 11 "Core/Src/../../dataprovider.h"
 609              		.file 12 "Drivers/STM32F4xx_HAL_Driver/Inc/stm32f4xx_hal.h"
 610              		.file 13 "USB_DEVICE/App/usb_device.h"
 611              		.file 14 "Core/Src/../../Middlewares/ST/STM32_USB_Device_Library/Class/CustomHID/Inc/usbd_customhi
 612              		.file 15 "<built-in>"
ARM GAS  C:\Users\Bence\AppData\Local\Temp\ccxlmg3d.s 			page 21

