ARM GAS  C:\Users\Bence\AppData\Local\Temp\cc7SQXsI.s 			page 1


   1              		.cpu cortex-m4
   2              		.arch armv7e-m
   3              		.fpu fpv4-sp-d16
   4              		.eabi_attribute 27, 1
   5              		.eabi_attribute 28, 1
   6              		.eabi_attribute 20, 1
   7              		.eabi_attribute 21, 1
   8              		.eabi_attribute 23, 3
   9              		.eabi_attribute 24, 1
  10              		.eabi_attribute 25, 1
  11              		.eabi_attribute 26, 1
  12              		.eabi_attribute 30, 1
  13              		.eabi_attribute 34, 1
  14              		.eabi_attribute 18, 4
  15              		.file	"usbd_desc.c"
  16              		.text
  17              	.Ltext0:
  18              		.cfi_sections	.debug_frame
  19              		.section	.text.USBD_FS_DeviceDescriptor,"ax",%progbits
  20              		.align	1
  21              		.global	USBD_FS_DeviceDescriptor
  22              		.syntax unified
  23              		.thumb
  24              		.thumb_func
  26              	USBD_FS_DeviceDescriptor:
  27              	.LVL0:
  28              	.LFB134:
  29              		.file 1 "USB_DEVICE/App/usbd_desc.c"
   1:USB_DEVICE/App/usbd_desc.c **** /* USER CODE BEGIN Header */
   2:USB_DEVICE/App/usbd_desc.c **** /**
   3:USB_DEVICE/App/usbd_desc.c ****   ******************************************************************************
   4:USB_DEVICE/App/usbd_desc.c ****   * @file           : App/usbd_desc.c
   5:USB_DEVICE/App/usbd_desc.c ****   * @version        : v1.0_Cube
   6:USB_DEVICE/App/usbd_desc.c ****   * @brief          : This file implements the USB device descriptors.
   7:USB_DEVICE/App/usbd_desc.c ****   ******************************************************************************
   8:USB_DEVICE/App/usbd_desc.c ****   * @attention
   9:USB_DEVICE/App/usbd_desc.c ****   *
  10:USB_DEVICE/App/usbd_desc.c ****   * Copyright (c) 2023 STMicroelectronics.
  11:USB_DEVICE/App/usbd_desc.c ****   * All rights reserved.
  12:USB_DEVICE/App/usbd_desc.c ****   *
  13:USB_DEVICE/App/usbd_desc.c ****   * This software is licensed under terms that can be found in the LICENSE file
  14:USB_DEVICE/App/usbd_desc.c ****   * in the root directory of this software component.
  15:USB_DEVICE/App/usbd_desc.c ****   * If no LICENSE file comes with this software, it is provided AS-IS.
  16:USB_DEVICE/App/usbd_desc.c ****   *
  17:USB_DEVICE/App/usbd_desc.c ****   ******************************************************************************
  18:USB_DEVICE/App/usbd_desc.c ****   */
  19:USB_DEVICE/App/usbd_desc.c **** /* USER CODE END Header */
  20:USB_DEVICE/App/usbd_desc.c **** 
  21:USB_DEVICE/App/usbd_desc.c **** /* Includes ------------------------------------------------------------------*/
  22:USB_DEVICE/App/usbd_desc.c **** #include "usbd_core.h"
  23:USB_DEVICE/App/usbd_desc.c **** #include "usbd_desc.h"
  24:USB_DEVICE/App/usbd_desc.c **** #include "usbd_conf.h"
  25:USB_DEVICE/App/usbd_desc.c **** 
  26:USB_DEVICE/App/usbd_desc.c **** /* USER CODE BEGIN INCLUDE */
  27:USB_DEVICE/App/usbd_desc.c **** 
  28:USB_DEVICE/App/usbd_desc.c **** /* USER CODE END INCLUDE */
  29:USB_DEVICE/App/usbd_desc.c **** 
ARM GAS  C:\Users\Bence\AppData\Local\Temp\cc7SQXsI.s 			page 2


  30:USB_DEVICE/App/usbd_desc.c **** /* Private typedef -----------------------------------------------------------*/
  31:USB_DEVICE/App/usbd_desc.c **** /* Private define ------------------------------------------------------------*/
  32:USB_DEVICE/App/usbd_desc.c **** /* Private macro -------------------------------------------------------------*/
  33:USB_DEVICE/App/usbd_desc.c **** 
  34:USB_DEVICE/App/usbd_desc.c **** /* USER CODE BEGIN PV */
  35:USB_DEVICE/App/usbd_desc.c **** /* Private variables ---------------------------------------------------------*/
  36:USB_DEVICE/App/usbd_desc.c **** 
  37:USB_DEVICE/App/usbd_desc.c **** /* USER CODE END PV */
  38:USB_DEVICE/App/usbd_desc.c **** 
  39:USB_DEVICE/App/usbd_desc.c **** /** @addtogroup STM32_USB_OTG_DEVICE_LIBRARY
  40:USB_DEVICE/App/usbd_desc.c ****   * @{
  41:USB_DEVICE/App/usbd_desc.c ****   */
  42:USB_DEVICE/App/usbd_desc.c **** 
  43:USB_DEVICE/App/usbd_desc.c **** /** @addtogroup USBD_DESC
  44:USB_DEVICE/App/usbd_desc.c ****   * @{
  45:USB_DEVICE/App/usbd_desc.c ****   */
  46:USB_DEVICE/App/usbd_desc.c **** 
  47:USB_DEVICE/App/usbd_desc.c **** /** @defgroup USBD_DESC_Private_TypesDefinitions USBD_DESC_Private_TypesDefinitions
  48:USB_DEVICE/App/usbd_desc.c ****   * @brief Private types.
  49:USB_DEVICE/App/usbd_desc.c ****   * @{
  50:USB_DEVICE/App/usbd_desc.c ****   */
  51:USB_DEVICE/App/usbd_desc.c **** 
  52:USB_DEVICE/App/usbd_desc.c **** /* USER CODE BEGIN PRIVATE_TYPES */
  53:USB_DEVICE/App/usbd_desc.c **** 
  54:USB_DEVICE/App/usbd_desc.c **** /* USER CODE END PRIVATE_TYPES */
  55:USB_DEVICE/App/usbd_desc.c **** 
  56:USB_DEVICE/App/usbd_desc.c **** /**
  57:USB_DEVICE/App/usbd_desc.c ****   * @}
  58:USB_DEVICE/App/usbd_desc.c ****   */
  59:USB_DEVICE/App/usbd_desc.c **** 
  60:USB_DEVICE/App/usbd_desc.c **** /** @defgroup USBD_DESC_Private_Defines USBD_DESC_Private_Defines
  61:USB_DEVICE/App/usbd_desc.c ****   * @brief Private defines.
  62:USB_DEVICE/App/usbd_desc.c ****   * @{
  63:USB_DEVICE/App/usbd_desc.c ****   */
  64:USB_DEVICE/App/usbd_desc.c **** 
  65:USB_DEVICE/App/usbd_desc.c **** #define USBD_VID     1155
  66:USB_DEVICE/App/usbd_desc.c **** #define USBD_LANGID_STRING     1033
  67:USB_DEVICE/App/usbd_desc.c **** #define USBD_MANUFACTURER_STRING     "STMicroelectronics"
  68:USB_DEVICE/App/usbd_desc.c **** #define USBD_PID_FS     22352
  69:USB_DEVICE/App/usbd_desc.c **** #define USBD_PRODUCT_STRING_FS     "BALLUFF USB Device"
  70:USB_DEVICE/App/usbd_desc.c **** #define USBD_CONFIGURATION_STRING_FS     "Custom HID Config"
  71:USB_DEVICE/App/usbd_desc.c **** #define USBD_INTERFACE_STRING_FS     "Custom HID Interface"
  72:USB_DEVICE/App/usbd_desc.c **** 
  73:USB_DEVICE/App/usbd_desc.c **** #define USB_SIZ_BOS_DESC            0x0C
  74:USB_DEVICE/App/usbd_desc.c **** 
  75:USB_DEVICE/App/usbd_desc.c **** /* USER CODE BEGIN PRIVATE_DEFINES */
  76:USB_DEVICE/App/usbd_desc.c **** 
  77:USB_DEVICE/App/usbd_desc.c **** /* USER CODE END PRIVATE_DEFINES */
  78:USB_DEVICE/App/usbd_desc.c **** 
  79:USB_DEVICE/App/usbd_desc.c **** /**
  80:USB_DEVICE/App/usbd_desc.c ****   * @}
  81:USB_DEVICE/App/usbd_desc.c ****   */
  82:USB_DEVICE/App/usbd_desc.c **** 
  83:USB_DEVICE/App/usbd_desc.c **** /* USER CODE BEGIN 0 */
  84:USB_DEVICE/App/usbd_desc.c **** 
  85:USB_DEVICE/App/usbd_desc.c **** /* USER CODE END 0 */
  86:USB_DEVICE/App/usbd_desc.c **** 
ARM GAS  C:\Users\Bence\AppData\Local\Temp\cc7SQXsI.s 			page 3


  87:USB_DEVICE/App/usbd_desc.c **** /** @defgroup USBD_DESC_Private_Macros USBD_DESC_Private_Macros
  88:USB_DEVICE/App/usbd_desc.c ****   * @brief Private macros.
  89:USB_DEVICE/App/usbd_desc.c ****   * @{
  90:USB_DEVICE/App/usbd_desc.c ****   */
  91:USB_DEVICE/App/usbd_desc.c **** 
  92:USB_DEVICE/App/usbd_desc.c **** /* USER CODE BEGIN PRIVATE_MACRO */
  93:USB_DEVICE/App/usbd_desc.c **** 
  94:USB_DEVICE/App/usbd_desc.c **** /* USER CODE END PRIVATE_MACRO */
  95:USB_DEVICE/App/usbd_desc.c **** 
  96:USB_DEVICE/App/usbd_desc.c **** /**
  97:USB_DEVICE/App/usbd_desc.c ****   * @}
  98:USB_DEVICE/App/usbd_desc.c ****   */
  99:USB_DEVICE/App/usbd_desc.c **** 
 100:USB_DEVICE/App/usbd_desc.c **** /** @defgroup USBD_DESC_Private_FunctionPrototypes USBD_DESC_Private_FunctionPrototypes
 101:USB_DEVICE/App/usbd_desc.c ****   * @brief Private functions declaration.
 102:USB_DEVICE/App/usbd_desc.c ****   * @{
 103:USB_DEVICE/App/usbd_desc.c ****   */
 104:USB_DEVICE/App/usbd_desc.c **** 
 105:USB_DEVICE/App/usbd_desc.c **** static void Get_SerialNum(void);
 106:USB_DEVICE/App/usbd_desc.c **** static void IntToUnicode(uint32_t value, uint8_t * pbuf, uint8_t len);
 107:USB_DEVICE/App/usbd_desc.c **** 
 108:USB_DEVICE/App/usbd_desc.c **** /**
 109:USB_DEVICE/App/usbd_desc.c ****   * @}
 110:USB_DEVICE/App/usbd_desc.c ****   */
 111:USB_DEVICE/App/usbd_desc.c **** 
 112:USB_DEVICE/App/usbd_desc.c **** /** @defgroup USBD_DESC_Private_FunctionPrototypes USBD_DESC_Private_FunctionPrototypes
 113:USB_DEVICE/App/usbd_desc.c ****   * @brief Private functions declaration for FS.
 114:USB_DEVICE/App/usbd_desc.c ****   * @{
 115:USB_DEVICE/App/usbd_desc.c ****   */
 116:USB_DEVICE/App/usbd_desc.c **** 
 117:USB_DEVICE/App/usbd_desc.c **** uint8_t * USBD_FS_DeviceDescriptor(USBD_SpeedTypeDef speed, uint16_t *length);
 118:USB_DEVICE/App/usbd_desc.c **** uint8_t * USBD_FS_LangIDStrDescriptor(USBD_SpeedTypeDef speed, uint16_t *length);
 119:USB_DEVICE/App/usbd_desc.c **** uint8_t * USBD_FS_ManufacturerStrDescriptor(USBD_SpeedTypeDef speed, uint16_t *length);
 120:USB_DEVICE/App/usbd_desc.c **** uint8_t * USBD_FS_ProductStrDescriptor(USBD_SpeedTypeDef speed, uint16_t *length);
 121:USB_DEVICE/App/usbd_desc.c **** uint8_t * USBD_FS_SerialStrDescriptor(USBD_SpeedTypeDef speed, uint16_t *length);
 122:USB_DEVICE/App/usbd_desc.c **** uint8_t * USBD_FS_ConfigStrDescriptor(USBD_SpeedTypeDef speed, uint16_t *length);
 123:USB_DEVICE/App/usbd_desc.c **** uint8_t * USBD_FS_InterfaceStrDescriptor(USBD_SpeedTypeDef speed, uint16_t *length);
 124:USB_DEVICE/App/usbd_desc.c **** #if (USBD_LPM_ENABLED == 1)
 125:USB_DEVICE/App/usbd_desc.c **** uint8_t * USBD_FS_USR_BOSDescriptor(USBD_SpeedTypeDef speed, uint16_t *length);
 126:USB_DEVICE/App/usbd_desc.c **** #endif /* (USBD_LPM_ENABLED == 1) */
 127:USB_DEVICE/App/usbd_desc.c **** 
 128:USB_DEVICE/App/usbd_desc.c **** /**
 129:USB_DEVICE/App/usbd_desc.c ****   * @}
 130:USB_DEVICE/App/usbd_desc.c ****   */
 131:USB_DEVICE/App/usbd_desc.c **** 
 132:USB_DEVICE/App/usbd_desc.c **** /** @defgroup USBD_DESC_Private_Variables USBD_DESC_Private_Variables
 133:USB_DEVICE/App/usbd_desc.c ****   * @brief Private variables.
 134:USB_DEVICE/App/usbd_desc.c ****   * @{
 135:USB_DEVICE/App/usbd_desc.c ****   */
 136:USB_DEVICE/App/usbd_desc.c **** 
 137:USB_DEVICE/App/usbd_desc.c **** USBD_DescriptorsTypeDef FS_Desc =
 138:USB_DEVICE/App/usbd_desc.c **** {
 139:USB_DEVICE/App/usbd_desc.c ****   USBD_FS_DeviceDescriptor
 140:USB_DEVICE/App/usbd_desc.c **** , USBD_FS_LangIDStrDescriptor
 141:USB_DEVICE/App/usbd_desc.c **** , USBD_FS_ManufacturerStrDescriptor
 142:USB_DEVICE/App/usbd_desc.c **** , USBD_FS_ProductStrDescriptor
 143:USB_DEVICE/App/usbd_desc.c **** , USBD_FS_SerialStrDescriptor
ARM GAS  C:\Users\Bence\AppData\Local\Temp\cc7SQXsI.s 			page 4


 144:USB_DEVICE/App/usbd_desc.c **** , USBD_FS_ConfigStrDescriptor
 145:USB_DEVICE/App/usbd_desc.c **** , USBD_FS_InterfaceStrDescriptor
 146:USB_DEVICE/App/usbd_desc.c **** #if (USBD_LPM_ENABLED == 1)
 147:USB_DEVICE/App/usbd_desc.c **** , USBD_FS_USR_BOSDescriptor
 148:USB_DEVICE/App/usbd_desc.c **** #endif /* (USBD_LPM_ENABLED == 1) */
 149:USB_DEVICE/App/usbd_desc.c **** };
 150:USB_DEVICE/App/usbd_desc.c **** 
 151:USB_DEVICE/App/usbd_desc.c **** #if defined ( __ICCARM__ ) /* IAR Compiler */
 152:USB_DEVICE/App/usbd_desc.c ****   #pragma data_alignment=4
 153:USB_DEVICE/App/usbd_desc.c **** #endif /* defined ( __ICCARM__ ) */
 154:USB_DEVICE/App/usbd_desc.c **** /** USB standard device descriptor. */
 155:USB_DEVICE/App/usbd_desc.c **** __ALIGN_BEGIN uint8_t USBD_FS_DeviceDesc[USB_LEN_DEV_DESC] __ALIGN_END =
 156:USB_DEVICE/App/usbd_desc.c **** {
 157:USB_DEVICE/App/usbd_desc.c ****   0x12,                       /*bLength */
 158:USB_DEVICE/App/usbd_desc.c ****   USB_DESC_TYPE_DEVICE,       /*bDescriptorType*/
 159:USB_DEVICE/App/usbd_desc.c **** #if (USBD_LPM_ENABLED == 1)
 160:USB_DEVICE/App/usbd_desc.c ****   0x01,                       /*bcdUSB */ /* changed to USB version 2.01
 161:USB_DEVICE/App/usbd_desc.c ****                                              in order to support LPM L1 suspend
 162:USB_DEVICE/App/usbd_desc.c ****                                              resume test of USBCV3.0*/
 163:USB_DEVICE/App/usbd_desc.c **** #else
 164:USB_DEVICE/App/usbd_desc.c ****   0x00,                       /*bcdUSB */
 165:USB_DEVICE/App/usbd_desc.c **** #endif /* (USBD_LPM_ENABLED == 1) */
 166:USB_DEVICE/App/usbd_desc.c ****   0x02,
 167:USB_DEVICE/App/usbd_desc.c ****   0x00,                       /*bDeviceClass*/
 168:USB_DEVICE/App/usbd_desc.c ****   0x00,                       /*bDeviceSubClass*/
 169:USB_DEVICE/App/usbd_desc.c ****   0x00,                       /*bDeviceProtocol*/
 170:USB_DEVICE/App/usbd_desc.c ****   USB_MAX_EP0_SIZE,           /*bMaxPacketSize*/
 171:USB_DEVICE/App/usbd_desc.c ****   LOBYTE(USBD_VID),           /*idVendor*/
 172:USB_DEVICE/App/usbd_desc.c ****   HIBYTE(USBD_VID),           /*idVendor*/
 173:USB_DEVICE/App/usbd_desc.c ****   LOBYTE(USBD_PID_FS),        /*idProduct*/
 174:USB_DEVICE/App/usbd_desc.c ****   HIBYTE(USBD_PID_FS),        /*idProduct*/
 175:USB_DEVICE/App/usbd_desc.c ****   0x00,                       /*bcdDevice rel. 2.00*/
 176:USB_DEVICE/App/usbd_desc.c ****   0x02,
 177:USB_DEVICE/App/usbd_desc.c ****   USBD_IDX_MFC_STR,           /*Index of manufacturer  string*/
 178:USB_DEVICE/App/usbd_desc.c ****   USBD_IDX_PRODUCT_STR,       /*Index of product string*/
 179:USB_DEVICE/App/usbd_desc.c ****   USBD_IDX_SERIAL_STR,        /*Index of serial number string*/
 180:USB_DEVICE/App/usbd_desc.c ****   USBD_MAX_NUM_CONFIGURATION  /*bNumConfigurations*/
 181:USB_DEVICE/App/usbd_desc.c **** };
 182:USB_DEVICE/App/usbd_desc.c **** 
 183:USB_DEVICE/App/usbd_desc.c **** /* USB_DeviceDescriptor */
 184:USB_DEVICE/App/usbd_desc.c **** /** BOS descriptor. */
 185:USB_DEVICE/App/usbd_desc.c **** #if (USBD_LPM_ENABLED == 1)
 186:USB_DEVICE/App/usbd_desc.c **** #if defined ( __ICCARM__ ) /* IAR Compiler */
 187:USB_DEVICE/App/usbd_desc.c ****   #pragma data_alignment=4
 188:USB_DEVICE/App/usbd_desc.c **** #endif /* defined ( __ICCARM__ ) */
 189:USB_DEVICE/App/usbd_desc.c **** __ALIGN_BEGIN uint8_t USBD_FS_BOSDesc[USB_SIZ_BOS_DESC] __ALIGN_END =
 190:USB_DEVICE/App/usbd_desc.c **** {
 191:USB_DEVICE/App/usbd_desc.c ****   0x5,
 192:USB_DEVICE/App/usbd_desc.c ****   USB_DESC_TYPE_BOS,
 193:USB_DEVICE/App/usbd_desc.c ****   0xC,
 194:USB_DEVICE/App/usbd_desc.c ****   0x0,
 195:USB_DEVICE/App/usbd_desc.c ****   0x1,  /* 1 device capability*/
 196:USB_DEVICE/App/usbd_desc.c ****         /* device capability*/
 197:USB_DEVICE/App/usbd_desc.c ****   0x7,
 198:USB_DEVICE/App/usbd_desc.c ****   USB_DEVICE_CAPABITY_TYPE,
 199:USB_DEVICE/App/usbd_desc.c ****   0x2,
 200:USB_DEVICE/App/usbd_desc.c ****   0x2,  /* LPM capability bit set*/
ARM GAS  C:\Users\Bence\AppData\Local\Temp\cc7SQXsI.s 			page 5


 201:USB_DEVICE/App/usbd_desc.c ****   0x0,
 202:USB_DEVICE/App/usbd_desc.c ****   0x0,
 203:USB_DEVICE/App/usbd_desc.c ****   0x0
 204:USB_DEVICE/App/usbd_desc.c **** };
 205:USB_DEVICE/App/usbd_desc.c **** #endif /* (USBD_LPM_ENABLED == 1) */
 206:USB_DEVICE/App/usbd_desc.c **** 
 207:USB_DEVICE/App/usbd_desc.c **** /**
 208:USB_DEVICE/App/usbd_desc.c ****   * @}
 209:USB_DEVICE/App/usbd_desc.c ****   */
 210:USB_DEVICE/App/usbd_desc.c **** 
 211:USB_DEVICE/App/usbd_desc.c **** /** @defgroup USBD_DESC_Private_Variables USBD_DESC_Private_Variables
 212:USB_DEVICE/App/usbd_desc.c ****   * @brief Private variables.
 213:USB_DEVICE/App/usbd_desc.c ****   * @{
 214:USB_DEVICE/App/usbd_desc.c ****   */
 215:USB_DEVICE/App/usbd_desc.c **** 
 216:USB_DEVICE/App/usbd_desc.c **** #if defined ( __ICCARM__ ) /* IAR Compiler */
 217:USB_DEVICE/App/usbd_desc.c ****   #pragma data_alignment=4
 218:USB_DEVICE/App/usbd_desc.c **** #endif /* defined ( __ICCARM__ ) */
 219:USB_DEVICE/App/usbd_desc.c **** 
 220:USB_DEVICE/App/usbd_desc.c **** /** USB lang identifier descriptor. */
 221:USB_DEVICE/App/usbd_desc.c **** __ALIGN_BEGIN uint8_t USBD_LangIDDesc[USB_LEN_LANGID_STR_DESC] __ALIGN_END =
 222:USB_DEVICE/App/usbd_desc.c **** {
 223:USB_DEVICE/App/usbd_desc.c ****      USB_LEN_LANGID_STR_DESC,
 224:USB_DEVICE/App/usbd_desc.c ****      USB_DESC_TYPE_STRING,
 225:USB_DEVICE/App/usbd_desc.c ****      LOBYTE(USBD_LANGID_STRING),
 226:USB_DEVICE/App/usbd_desc.c ****      HIBYTE(USBD_LANGID_STRING)
 227:USB_DEVICE/App/usbd_desc.c **** };
 228:USB_DEVICE/App/usbd_desc.c **** 
 229:USB_DEVICE/App/usbd_desc.c **** #if defined ( __ICCARM__ ) /* IAR Compiler */
 230:USB_DEVICE/App/usbd_desc.c ****   #pragma data_alignment=4
 231:USB_DEVICE/App/usbd_desc.c **** #endif /* defined ( __ICCARM__ ) */
 232:USB_DEVICE/App/usbd_desc.c **** /* Internal string descriptor. */
 233:USB_DEVICE/App/usbd_desc.c **** __ALIGN_BEGIN uint8_t USBD_StrDesc[USBD_MAX_STR_DESC_SIZ] __ALIGN_END;
 234:USB_DEVICE/App/usbd_desc.c **** 
 235:USB_DEVICE/App/usbd_desc.c **** #if defined ( __ICCARM__ ) /*!< IAR Compiler */
 236:USB_DEVICE/App/usbd_desc.c ****   #pragma data_alignment=4
 237:USB_DEVICE/App/usbd_desc.c **** #endif
 238:USB_DEVICE/App/usbd_desc.c **** __ALIGN_BEGIN uint8_t USBD_StringSerial[USB_SIZ_STRING_SERIAL] __ALIGN_END = {
 239:USB_DEVICE/App/usbd_desc.c ****   USB_SIZ_STRING_SERIAL,
 240:USB_DEVICE/App/usbd_desc.c ****   USB_DESC_TYPE_STRING,
 241:USB_DEVICE/App/usbd_desc.c **** };
 242:USB_DEVICE/App/usbd_desc.c **** 
 243:USB_DEVICE/App/usbd_desc.c **** /**
 244:USB_DEVICE/App/usbd_desc.c ****   * @}
 245:USB_DEVICE/App/usbd_desc.c ****   */
 246:USB_DEVICE/App/usbd_desc.c **** 
 247:USB_DEVICE/App/usbd_desc.c **** /** @defgroup USBD_DESC_Private_Functions USBD_DESC_Private_Functions
 248:USB_DEVICE/App/usbd_desc.c ****   * @brief Private functions.
 249:USB_DEVICE/App/usbd_desc.c ****   * @{
 250:USB_DEVICE/App/usbd_desc.c ****   */
 251:USB_DEVICE/App/usbd_desc.c **** 
 252:USB_DEVICE/App/usbd_desc.c **** /**
 253:USB_DEVICE/App/usbd_desc.c ****   * @brief  Return the device descriptor
 254:USB_DEVICE/App/usbd_desc.c ****   * @param  speed : Current device speed
 255:USB_DEVICE/App/usbd_desc.c ****   * @param  length : Pointer to data length variable
 256:USB_DEVICE/App/usbd_desc.c ****   * @retval Pointer to descriptor buffer
 257:USB_DEVICE/App/usbd_desc.c ****   */
ARM GAS  C:\Users\Bence\AppData\Local\Temp\cc7SQXsI.s 			page 6


 258:USB_DEVICE/App/usbd_desc.c **** uint8_t * USBD_FS_DeviceDescriptor(USBD_SpeedTypeDef speed, uint16_t *length)
 259:USB_DEVICE/App/usbd_desc.c **** {
  30              		.loc 1 259 1 view -0
  31              		.cfi_startproc
  32              		@ args = 0, pretend = 0, frame = 0
  33              		@ frame_needed = 0, uses_anonymous_args = 0
  34              		@ link register save eliminated.
 260:USB_DEVICE/App/usbd_desc.c ****   UNUSED(speed);
  35              		.loc 1 260 3 view .LVU1
 261:USB_DEVICE/App/usbd_desc.c ****   *length = sizeof(USBD_FS_DeviceDesc);
  36              		.loc 1 261 3 view .LVU2
  37              		.loc 1 261 11 is_stmt 0 view .LVU3
  38 0000 1223     		movs	r3, #18
  39 0002 0B80     		strh	r3, [r1]	@ movhi
 262:USB_DEVICE/App/usbd_desc.c ****   return USBD_FS_DeviceDesc;
  40              		.loc 1 262 3 is_stmt 1 view .LVU4
 263:USB_DEVICE/App/usbd_desc.c **** }
  41              		.loc 1 263 1 is_stmt 0 view .LVU5
  42 0004 0048     		ldr	r0, .L2
  43              	.LVL1:
  44              		.loc 1 263 1 view .LVU6
  45 0006 7047     		bx	lr
  46              	.L3:
  47              		.align	2
  48              	.L2:
  49 0008 00000000 		.word	.LANCHOR0
  50              		.cfi_endproc
  51              	.LFE134:
  53              		.section	.text.USBD_FS_LangIDStrDescriptor,"ax",%progbits
  54              		.align	1
  55              		.global	USBD_FS_LangIDStrDescriptor
  56              		.syntax unified
  57              		.thumb
  58              		.thumb_func
  60              	USBD_FS_LangIDStrDescriptor:
  61              	.LVL2:
  62              	.LFB135:
 264:USB_DEVICE/App/usbd_desc.c **** 
 265:USB_DEVICE/App/usbd_desc.c **** /**
 266:USB_DEVICE/App/usbd_desc.c ****   * @brief  Return the LangID string descriptor
 267:USB_DEVICE/App/usbd_desc.c ****   * @param  speed : Current device speed
 268:USB_DEVICE/App/usbd_desc.c ****   * @param  length : Pointer to data length variable
 269:USB_DEVICE/App/usbd_desc.c ****   * @retval Pointer to descriptor buffer
 270:USB_DEVICE/App/usbd_desc.c ****   */
 271:USB_DEVICE/App/usbd_desc.c **** uint8_t * USBD_FS_LangIDStrDescriptor(USBD_SpeedTypeDef speed, uint16_t *length)
 272:USB_DEVICE/App/usbd_desc.c **** {
  63              		.loc 1 272 1 is_stmt 1 view -0
  64              		.cfi_startproc
  65              		@ args = 0, pretend = 0, frame = 0
  66              		@ frame_needed = 0, uses_anonymous_args = 0
  67              		@ link register save eliminated.
 273:USB_DEVICE/App/usbd_desc.c ****   UNUSED(speed);
  68              		.loc 1 273 3 view .LVU8
 274:USB_DEVICE/App/usbd_desc.c ****   *length = sizeof(USBD_LangIDDesc);
  69              		.loc 1 274 3 view .LVU9
  70              		.loc 1 274 11 is_stmt 0 view .LVU10
  71 0000 0423     		movs	r3, #4
ARM GAS  C:\Users\Bence\AppData\Local\Temp\cc7SQXsI.s 			page 7


  72 0002 0B80     		strh	r3, [r1]	@ movhi
 275:USB_DEVICE/App/usbd_desc.c ****   return USBD_LangIDDesc;
  73              		.loc 1 275 3 is_stmt 1 view .LVU11
 276:USB_DEVICE/App/usbd_desc.c **** }
  74              		.loc 1 276 1 is_stmt 0 view .LVU12
  75 0004 0048     		ldr	r0, .L5
  76              	.LVL3:
  77              		.loc 1 276 1 view .LVU13
  78 0006 7047     		bx	lr
  79              	.L6:
  80              		.align	2
  81              	.L5:
  82 0008 00000000 		.word	.LANCHOR1
  83              		.cfi_endproc
  84              	.LFE135:
  86              		.section	.text.USBD_FS_USR_BOSDescriptor,"ax",%progbits
  87              		.align	1
  88              		.global	USBD_FS_USR_BOSDescriptor
  89              		.syntax unified
  90              		.thumb
  91              		.thumb_func
  93              	USBD_FS_USR_BOSDescriptor:
  94              	.LVL4:
  95              	.LFB141:
 277:USB_DEVICE/App/usbd_desc.c **** 
 278:USB_DEVICE/App/usbd_desc.c **** /**
 279:USB_DEVICE/App/usbd_desc.c ****   * @brief  Return the product string descriptor
 280:USB_DEVICE/App/usbd_desc.c ****   * @param  speed : Current device speed
 281:USB_DEVICE/App/usbd_desc.c ****   * @param  length : Pointer to data length variable
 282:USB_DEVICE/App/usbd_desc.c ****   * @retval Pointer to descriptor buffer
 283:USB_DEVICE/App/usbd_desc.c ****   */
 284:USB_DEVICE/App/usbd_desc.c **** uint8_t * USBD_FS_ProductStrDescriptor(USBD_SpeedTypeDef speed, uint16_t *length)
 285:USB_DEVICE/App/usbd_desc.c **** {
 286:USB_DEVICE/App/usbd_desc.c ****   if(speed == 0)
 287:USB_DEVICE/App/usbd_desc.c ****   {
 288:USB_DEVICE/App/usbd_desc.c ****     USBD_GetString((uint8_t *)USBD_PRODUCT_STRING_FS, USBD_StrDesc, length);
 289:USB_DEVICE/App/usbd_desc.c ****   }
 290:USB_DEVICE/App/usbd_desc.c ****   else
 291:USB_DEVICE/App/usbd_desc.c ****   {
 292:USB_DEVICE/App/usbd_desc.c ****     USBD_GetString((uint8_t *)USBD_PRODUCT_STRING_FS, USBD_StrDesc, length);
 293:USB_DEVICE/App/usbd_desc.c ****   }
 294:USB_DEVICE/App/usbd_desc.c ****   return USBD_StrDesc;
 295:USB_DEVICE/App/usbd_desc.c **** }
 296:USB_DEVICE/App/usbd_desc.c **** 
 297:USB_DEVICE/App/usbd_desc.c **** /**
 298:USB_DEVICE/App/usbd_desc.c ****   * @brief  Return the manufacturer string descriptor
 299:USB_DEVICE/App/usbd_desc.c ****   * @param  speed : Current device speed
 300:USB_DEVICE/App/usbd_desc.c ****   * @param  length : Pointer to data length variable
 301:USB_DEVICE/App/usbd_desc.c ****   * @retval Pointer to descriptor buffer
 302:USB_DEVICE/App/usbd_desc.c ****   */
 303:USB_DEVICE/App/usbd_desc.c **** uint8_t * USBD_FS_ManufacturerStrDescriptor(USBD_SpeedTypeDef speed, uint16_t *length)
 304:USB_DEVICE/App/usbd_desc.c **** {
 305:USB_DEVICE/App/usbd_desc.c ****   UNUSED(speed);
 306:USB_DEVICE/App/usbd_desc.c ****   USBD_GetString((uint8_t *)USBD_MANUFACTURER_STRING, USBD_StrDesc, length);
 307:USB_DEVICE/App/usbd_desc.c ****   return USBD_StrDesc;
 308:USB_DEVICE/App/usbd_desc.c **** }
 309:USB_DEVICE/App/usbd_desc.c **** 
ARM GAS  C:\Users\Bence\AppData\Local\Temp\cc7SQXsI.s 			page 8


 310:USB_DEVICE/App/usbd_desc.c **** /**
 311:USB_DEVICE/App/usbd_desc.c ****   * @brief  Return the serial number string descriptor
 312:USB_DEVICE/App/usbd_desc.c ****   * @param  speed : Current device speed
 313:USB_DEVICE/App/usbd_desc.c ****   * @param  length : Pointer to data length variable
 314:USB_DEVICE/App/usbd_desc.c ****   * @retval Pointer to descriptor buffer
 315:USB_DEVICE/App/usbd_desc.c ****   */
 316:USB_DEVICE/App/usbd_desc.c **** uint8_t * USBD_FS_SerialStrDescriptor(USBD_SpeedTypeDef speed, uint16_t *length)
 317:USB_DEVICE/App/usbd_desc.c **** {
 318:USB_DEVICE/App/usbd_desc.c ****   UNUSED(speed);
 319:USB_DEVICE/App/usbd_desc.c ****   *length = USB_SIZ_STRING_SERIAL;
 320:USB_DEVICE/App/usbd_desc.c **** 
 321:USB_DEVICE/App/usbd_desc.c ****   /* Update the serial number string descriptor with the data from the unique
 322:USB_DEVICE/App/usbd_desc.c ****    * ID */
 323:USB_DEVICE/App/usbd_desc.c ****   Get_SerialNum();
 324:USB_DEVICE/App/usbd_desc.c ****   /* USER CODE BEGIN USBD_FS_SerialStrDescriptor */
 325:USB_DEVICE/App/usbd_desc.c **** 
 326:USB_DEVICE/App/usbd_desc.c ****   /* USER CODE END USBD_FS_SerialStrDescriptor */
 327:USB_DEVICE/App/usbd_desc.c ****   return (uint8_t *) USBD_StringSerial;
 328:USB_DEVICE/App/usbd_desc.c **** }
 329:USB_DEVICE/App/usbd_desc.c **** 
 330:USB_DEVICE/App/usbd_desc.c **** /**
 331:USB_DEVICE/App/usbd_desc.c ****   * @brief  Return the configuration string descriptor
 332:USB_DEVICE/App/usbd_desc.c ****   * @param  speed : Current device speed
 333:USB_DEVICE/App/usbd_desc.c ****   * @param  length : Pointer to data length variable
 334:USB_DEVICE/App/usbd_desc.c ****   * @retval Pointer to descriptor buffer
 335:USB_DEVICE/App/usbd_desc.c ****   */
 336:USB_DEVICE/App/usbd_desc.c **** uint8_t * USBD_FS_ConfigStrDescriptor(USBD_SpeedTypeDef speed, uint16_t *length)
 337:USB_DEVICE/App/usbd_desc.c **** {
 338:USB_DEVICE/App/usbd_desc.c ****   if(speed == USBD_SPEED_HIGH)
 339:USB_DEVICE/App/usbd_desc.c ****   {
 340:USB_DEVICE/App/usbd_desc.c ****     USBD_GetString((uint8_t *)USBD_CONFIGURATION_STRING_FS, USBD_StrDesc, length);
 341:USB_DEVICE/App/usbd_desc.c ****   }
 342:USB_DEVICE/App/usbd_desc.c ****   else
 343:USB_DEVICE/App/usbd_desc.c ****   {
 344:USB_DEVICE/App/usbd_desc.c ****     USBD_GetString((uint8_t *)USBD_CONFIGURATION_STRING_FS, USBD_StrDesc, length);
 345:USB_DEVICE/App/usbd_desc.c ****   }
 346:USB_DEVICE/App/usbd_desc.c ****   return USBD_StrDesc;
 347:USB_DEVICE/App/usbd_desc.c **** }
 348:USB_DEVICE/App/usbd_desc.c **** 
 349:USB_DEVICE/App/usbd_desc.c **** /**
 350:USB_DEVICE/App/usbd_desc.c ****   * @brief  Return the interface string descriptor
 351:USB_DEVICE/App/usbd_desc.c ****   * @param  speed : Current device speed
 352:USB_DEVICE/App/usbd_desc.c ****   * @param  length : Pointer to data length variable
 353:USB_DEVICE/App/usbd_desc.c ****   * @retval Pointer to descriptor buffer
 354:USB_DEVICE/App/usbd_desc.c ****   */
 355:USB_DEVICE/App/usbd_desc.c **** uint8_t * USBD_FS_InterfaceStrDescriptor(USBD_SpeedTypeDef speed, uint16_t *length)
 356:USB_DEVICE/App/usbd_desc.c **** {
 357:USB_DEVICE/App/usbd_desc.c ****   if(speed == 0)
 358:USB_DEVICE/App/usbd_desc.c ****   {
 359:USB_DEVICE/App/usbd_desc.c ****     USBD_GetString((uint8_t *)USBD_INTERFACE_STRING_FS, USBD_StrDesc, length);
 360:USB_DEVICE/App/usbd_desc.c ****   }
 361:USB_DEVICE/App/usbd_desc.c ****   else
 362:USB_DEVICE/App/usbd_desc.c ****   {
 363:USB_DEVICE/App/usbd_desc.c ****     USBD_GetString((uint8_t *)USBD_INTERFACE_STRING_FS, USBD_StrDesc, length);
 364:USB_DEVICE/App/usbd_desc.c ****   }
 365:USB_DEVICE/App/usbd_desc.c ****   return USBD_StrDesc;
 366:USB_DEVICE/App/usbd_desc.c **** }
ARM GAS  C:\Users\Bence\AppData\Local\Temp\cc7SQXsI.s 			page 9


 367:USB_DEVICE/App/usbd_desc.c **** 
 368:USB_DEVICE/App/usbd_desc.c **** #if (USBD_LPM_ENABLED == 1)
 369:USB_DEVICE/App/usbd_desc.c **** /**
 370:USB_DEVICE/App/usbd_desc.c ****   * @brief  Return the BOS descriptor
 371:USB_DEVICE/App/usbd_desc.c ****   * @param  speed : Current device speed
 372:USB_DEVICE/App/usbd_desc.c ****   * @param  length : Pointer to data length variable
 373:USB_DEVICE/App/usbd_desc.c ****   * @retval Pointer to descriptor buffer
 374:USB_DEVICE/App/usbd_desc.c ****   */
 375:USB_DEVICE/App/usbd_desc.c **** uint8_t * USBD_FS_USR_BOSDescriptor(USBD_SpeedTypeDef speed, uint16_t *length)
 376:USB_DEVICE/App/usbd_desc.c **** {
  96              		.loc 1 376 1 is_stmt 1 view -0
  97              		.cfi_startproc
  98              		@ args = 0, pretend = 0, frame = 0
  99              		@ frame_needed = 0, uses_anonymous_args = 0
 100              		@ link register save eliminated.
 377:USB_DEVICE/App/usbd_desc.c ****   UNUSED(speed);
 101              		.loc 1 377 3 view .LVU15
 378:USB_DEVICE/App/usbd_desc.c ****   *length = sizeof(USBD_FS_BOSDesc);
 102              		.loc 1 378 3 view .LVU16
 103              		.loc 1 378 11 is_stmt 0 view .LVU17
 104 0000 0C23     		movs	r3, #12
 105 0002 0B80     		strh	r3, [r1]	@ movhi
 379:USB_DEVICE/App/usbd_desc.c ****   return (uint8_t*)USBD_FS_BOSDesc;
 106              		.loc 1 379 3 is_stmt 1 view .LVU18
 380:USB_DEVICE/App/usbd_desc.c **** }
 107              		.loc 1 380 1 is_stmt 0 view .LVU19
 108 0004 0048     		ldr	r0, .L8
 109              	.LVL5:
 110              		.loc 1 380 1 view .LVU20
 111 0006 7047     		bx	lr
 112              	.L9:
 113              		.align	2
 114              	.L8:
 115 0008 00000000 		.word	.LANCHOR2
 116              		.cfi_endproc
 117              	.LFE141:
 119              		.section	.text.IntToUnicode,"ax",%progbits
 120              		.align	1
 121              		.syntax unified
 122              		.thumb
 123              		.thumb_func
 125              	IntToUnicode:
 126              	.LVL6:
 127              	.LFB143:
 381:USB_DEVICE/App/usbd_desc.c **** #endif /* (USBD_LPM_ENABLED == 1) */
 382:USB_DEVICE/App/usbd_desc.c **** 
 383:USB_DEVICE/App/usbd_desc.c **** /**
 384:USB_DEVICE/App/usbd_desc.c ****   * @brief  Create the serial number string descriptor
 385:USB_DEVICE/App/usbd_desc.c ****   * @param  None
 386:USB_DEVICE/App/usbd_desc.c ****   * @retval None
 387:USB_DEVICE/App/usbd_desc.c ****   */
 388:USB_DEVICE/App/usbd_desc.c **** static void Get_SerialNum(void)
 389:USB_DEVICE/App/usbd_desc.c **** {
 390:USB_DEVICE/App/usbd_desc.c ****   uint32_t deviceserial0;
 391:USB_DEVICE/App/usbd_desc.c ****   uint32_t deviceserial1;
 392:USB_DEVICE/App/usbd_desc.c ****   uint32_t deviceserial2;
 393:USB_DEVICE/App/usbd_desc.c **** 
ARM GAS  C:\Users\Bence\AppData\Local\Temp\cc7SQXsI.s 			page 10


 394:USB_DEVICE/App/usbd_desc.c ****   deviceserial0 = *(uint32_t *) DEVICE_ID1;
 395:USB_DEVICE/App/usbd_desc.c ****   deviceserial1 = *(uint32_t *) DEVICE_ID2;
 396:USB_DEVICE/App/usbd_desc.c ****   deviceserial2 = *(uint32_t *) DEVICE_ID3;
 397:USB_DEVICE/App/usbd_desc.c **** 
 398:USB_DEVICE/App/usbd_desc.c ****   deviceserial0 += deviceserial2;
 399:USB_DEVICE/App/usbd_desc.c **** 
 400:USB_DEVICE/App/usbd_desc.c ****   if (deviceserial0 != 0)
 401:USB_DEVICE/App/usbd_desc.c ****   {
 402:USB_DEVICE/App/usbd_desc.c ****     IntToUnicode(deviceserial0, &USBD_StringSerial[2], 8);
 403:USB_DEVICE/App/usbd_desc.c ****     IntToUnicode(deviceserial1, &USBD_StringSerial[18], 4);
 404:USB_DEVICE/App/usbd_desc.c ****   }
 405:USB_DEVICE/App/usbd_desc.c **** }
 406:USB_DEVICE/App/usbd_desc.c **** 
 407:USB_DEVICE/App/usbd_desc.c **** /**
 408:USB_DEVICE/App/usbd_desc.c ****   * @brief  Convert Hex 32Bits value into char
 409:USB_DEVICE/App/usbd_desc.c ****   * @param  value: value to convert
 410:USB_DEVICE/App/usbd_desc.c ****   * @param  pbuf: pointer to the buffer
 411:USB_DEVICE/App/usbd_desc.c ****   * @param  len: buffer length
 412:USB_DEVICE/App/usbd_desc.c ****   * @retval None
 413:USB_DEVICE/App/usbd_desc.c ****   */
 414:USB_DEVICE/App/usbd_desc.c **** static void IntToUnicode(uint32_t value, uint8_t * pbuf, uint8_t len)
 415:USB_DEVICE/App/usbd_desc.c **** {
 128              		.loc 1 415 1 is_stmt 1 view -0
 129              		.cfi_startproc
 130              		@ args = 0, pretend = 0, frame = 0
 131              		@ frame_needed = 0, uses_anonymous_args = 0
 416:USB_DEVICE/App/usbd_desc.c ****   uint8_t idx = 0;
 132              		.loc 1 416 3 view .LVU22
 417:USB_DEVICE/App/usbd_desc.c **** 
 418:USB_DEVICE/App/usbd_desc.c ****   for (idx = 0; idx < len; idx++)
 133              		.loc 1 418 3 view .LVU23
 134              		.loc 1 418 12 is_stmt 0 view .LVU24
 135 0000 0023     		movs	r3, #0
 136              	.LVL7:
 137              		.loc 1 418 17 is_stmt 1 view .LVU25
 138              		.loc 1 418 3 is_stmt 0 view .LVU26
 139 0002 9342     		cmp	r3, r2
 140 0004 1ED2     		bcs	.L18
 415:USB_DEVICE/App/usbd_desc.c ****   uint8_t idx = 0;
 141              		.loc 1 415 1 view .LVU27
 142 0006 00B5     		push	{lr}
 143              	.LCFI0:
 144              		.cfi_def_cfa_offset 4
 145              		.cfi_offset 14, -4
 146 0008 10E0     		b	.L14
 147              	.L12:
 419:USB_DEVICE/App/usbd_desc.c ****   {
 420:USB_DEVICE/App/usbd_desc.c ****     if (((value >> 28)) < 0xA)
 421:USB_DEVICE/App/usbd_desc.c ****     {
 422:USB_DEVICE/App/usbd_desc.c ****       pbuf[2 * idx] = (value >> 28) + '0';
 423:USB_DEVICE/App/usbd_desc.c ****     }
 424:USB_DEVICE/App/usbd_desc.c ****     else
 425:USB_DEVICE/App/usbd_desc.c ****     {
 426:USB_DEVICE/App/usbd_desc.c ****       pbuf[2 * idx] = (value >> 28) + 'A' - 10;
 148              		.loc 1 426 7 is_stmt 1 view .LVU28
 149              		.loc 1 426 43 is_stmt 0 view .LVU29
 150 000a 0CF1370C 		add	ip, ip, #55
ARM GAS  C:\Users\Bence\AppData\Local\Temp\cc7SQXsI.s 			page 11


 151              		.loc 1 426 21 view .LVU30
 152 000e 01F813C0 		strb	ip, [r1, r3, lsl #1]
 153              	.L13:
 427:USB_DEVICE/App/usbd_desc.c ****     }
 428:USB_DEVICE/App/usbd_desc.c **** 
 429:USB_DEVICE/App/usbd_desc.c ****     value = value << 4;
 154              		.loc 1 429 5 is_stmt 1 discriminator 2 view .LVU31
 155              		.loc 1 429 11 is_stmt 0 discriminator 2 view .LVU32
 156 0012 0001     		lsls	r0, r0, #4
 157              	.LVL8:
 430:USB_DEVICE/App/usbd_desc.c **** 
 431:USB_DEVICE/App/usbd_desc.c ****     pbuf[2 * idx + 1] = 0;
 158              		.loc 1 431 5 is_stmt 1 discriminator 2 view .LVU33
 159              		.loc 1 431 12 is_stmt 0 discriminator 2 view .LVU34
 160 0014 4FEA430C 		lsl	ip, r3, #1
 161              		.loc 1 431 9 discriminator 2 view .LVU35
 162 0018 0CF1010C 		add	ip, ip, #1
 163              		.loc 1 431 23 discriminator 2 view .LVU36
 164 001c 4FF0000E 		mov	lr, #0
 165 0020 01F80CE0 		strb	lr, [r1, ip]
 418:USB_DEVICE/App/usbd_desc.c ****   {
 166              		.loc 1 418 28 is_stmt 1 discriminator 2 view .LVU37
 418:USB_DEVICE/App/usbd_desc.c ****   {
 167              		.loc 1 418 31 is_stmt 0 discriminator 2 view .LVU38
 168 0024 0133     		adds	r3, r3, #1
 169              	.LVL9:
 418:USB_DEVICE/App/usbd_desc.c ****   {
 170              		.loc 1 418 31 discriminator 2 view .LVU39
 171 0026 DBB2     		uxtb	r3, r3
 172              	.LVL10:
 418:USB_DEVICE/App/usbd_desc.c ****   {
 173              		.loc 1 418 17 is_stmt 1 discriminator 2 view .LVU40
 418:USB_DEVICE/App/usbd_desc.c ****   {
 174              		.loc 1 418 3 is_stmt 0 discriminator 2 view .LVU41
 175 0028 9342     		cmp	r3, r2
 176 002a 09D2     		bcs	.L19
 177              	.L14:
 420:USB_DEVICE/App/usbd_desc.c ****     {
 178              		.loc 1 420 5 is_stmt 1 view .LVU42
 420:USB_DEVICE/App/usbd_desc.c ****     {
 179              		.loc 1 420 17 is_stmt 0 view .LVU43
 180 002c 4FEA107C 		lsr	ip, r0, #28
 420:USB_DEVICE/App/usbd_desc.c ****     {
 181              		.loc 1 420 8 view .LVU44
 182 0030 B0F1204F 		cmp	r0, #-1610612736
 183 0034 E9D2     		bcs	.L12
 422:USB_DEVICE/App/usbd_desc.c ****     }
 184              		.loc 1 422 7 is_stmt 1 view .LVU45
 422:USB_DEVICE/App/usbd_desc.c ****     }
 185              		.loc 1 422 37 is_stmt 0 view .LVU46
 186 0036 0CF1300C 		add	ip, ip, #48
 422:USB_DEVICE/App/usbd_desc.c ****     }
 187              		.loc 1 422 21 view .LVU47
 188 003a 01F813C0 		strb	ip, [r1, r3, lsl #1]
 189 003e E8E7     		b	.L13
 190              	.L19:
 432:USB_DEVICE/App/usbd_desc.c ****   }
ARM GAS  C:\Users\Bence\AppData\Local\Temp\cc7SQXsI.s 			page 12


 433:USB_DEVICE/App/usbd_desc.c **** }
 191              		.loc 1 433 1 view .LVU48
 192 0040 5DF804FB 		ldr	pc, [sp], #4
 193              	.L18:
 194              	.LCFI1:
 195              		.cfi_def_cfa_offset 0
 196              		.cfi_restore 14
 197              		.loc 1 433 1 view .LVU49
 198 0044 7047     		bx	lr
 199              		.cfi_endproc
 200              	.LFE143:
 202              		.section	.text.Get_SerialNum,"ax",%progbits
 203              		.align	1
 204              		.syntax unified
 205              		.thumb
 206              		.thumb_func
 208              	Get_SerialNum:
 209              	.LFB142:
 389:USB_DEVICE/App/usbd_desc.c ****   uint32_t deviceserial0;
 210              		.loc 1 389 1 is_stmt 1 view -0
 211              		.cfi_startproc
 212              		@ args = 0, pretend = 0, frame = 0
 213              		@ frame_needed = 0, uses_anonymous_args = 0
 214 0000 38B5     		push	{r3, r4, r5, lr}
 215              	.LCFI2:
 216              		.cfi_def_cfa_offset 16
 217              		.cfi_offset 3, -16
 218              		.cfi_offset 4, -12
 219              		.cfi_offset 5, -8
 220              		.cfi_offset 14, -4
 390:USB_DEVICE/App/usbd_desc.c ****   uint32_t deviceserial1;
 221              		.loc 1 390 3 view .LVU51
 391:USB_DEVICE/App/usbd_desc.c ****   uint32_t deviceserial2;
 222              		.loc 1 391 3 view .LVU52
 392:USB_DEVICE/App/usbd_desc.c **** 
 223              		.loc 1 392 3 view .LVU53
 394:USB_DEVICE/App/usbd_desc.c ****   deviceserial1 = *(uint32_t *) DEVICE_ID2;
 224              		.loc 1 394 3 view .LVU54
 394:USB_DEVICE/App/usbd_desc.c ****   deviceserial1 = *(uint32_t *) DEVICE_ID2;
 225              		.loc 1 394 17 is_stmt 0 view .LVU55
 226 0002 0B4B     		ldr	r3, .L24
 227 0004 D3F8100A 		ldr	r0, [r3, #2576]
 228              	.LVL11:
 395:USB_DEVICE/App/usbd_desc.c ****   deviceserial2 = *(uint32_t *) DEVICE_ID3;
 229              		.loc 1 395 3 is_stmt 1 view .LVU56
 395:USB_DEVICE/App/usbd_desc.c ****   deviceserial2 = *(uint32_t *) DEVICE_ID3;
 230              		.loc 1 395 17 is_stmt 0 view .LVU57
 231 0008 D3F8144A 		ldr	r4, [r3, #2580]
 232              	.LVL12:
 396:USB_DEVICE/App/usbd_desc.c **** 
 233              		.loc 1 396 3 is_stmt 1 view .LVU58
 396:USB_DEVICE/App/usbd_desc.c **** 
 234              		.loc 1 396 17 is_stmt 0 view .LVU59
 235 000c D3F8183A 		ldr	r3, [r3, #2584]
 236              	.LVL13:
 398:USB_DEVICE/App/usbd_desc.c **** 
 237              		.loc 1 398 3 is_stmt 1 view .LVU60
ARM GAS  C:\Users\Bence\AppData\Local\Temp\cc7SQXsI.s 			page 13


 400:USB_DEVICE/App/usbd_desc.c ****   {
 238              		.loc 1 400 3 view .LVU61
 400:USB_DEVICE/App/usbd_desc.c ****   {
 239              		.loc 1 400 6 is_stmt 0 view .LVU62
 240 0010 C018     		adds	r0, r0, r3
 241              	.LVL14:
 400:USB_DEVICE/App/usbd_desc.c ****   {
 242              		.loc 1 400 6 view .LVU63
 243 0012 00D1     		bne	.L23
 244              	.LVL15:
 245              	.L20:
 405:USB_DEVICE/App/usbd_desc.c **** 
 246              		.loc 1 405 1 view .LVU64
 247 0014 38BD     		pop	{r3, r4, r5, pc}
 248              	.LVL16:
 249              	.L23:
 402:USB_DEVICE/App/usbd_desc.c ****     IntToUnicode(deviceserial1, &USBD_StringSerial[18], 4);
 250              		.loc 1 402 5 is_stmt 1 view .LVU65
 251 0016 074D     		ldr	r5, .L24+4
 252 0018 0822     		movs	r2, #8
 253 001a A91C     		adds	r1, r5, #2
 254 001c FFF7FEFF 		bl	IntToUnicode
 255              	.LVL17:
 403:USB_DEVICE/App/usbd_desc.c ****   }
 256              		.loc 1 403 5 view .LVU66
 257 0020 0422     		movs	r2, #4
 258 0022 05F11201 		add	r1, r5, #18
 259 0026 2046     		mov	r0, r4
 260 0028 FFF7FEFF 		bl	IntToUnicode
 261              	.LVL18:
 405:USB_DEVICE/App/usbd_desc.c **** 
 262              		.loc 1 405 1 is_stmt 0 view .LVU67
 263 002c F2E7     		b	.L20
 264              	.L25:
 265 002e 00BF     		.align	2
 266              	.L24:
 267 0030 0070FF1F 		.word	536834048
 268 0034 00000000 		.word	.LANCHOR3
 269              		.cfi_endproc
 270              	.LFE142:
 272              		.section	.text.USBD_FS_SerialStrDescriptor,"ax",%progbits
 273              		.align	1
 274              		.global	USBD_FS_SerialStrDescriptor
 275              		.syntax unified
 276              		.thumb
 277              		.thumb_func
 279              	USBD_FS_SerialStrDescriptor:
 280              	.LVL19:
 281              	.LFB138:
 317:USB_DEVICE/App/usbd_desc.c ****   UNUSED(speed);
 282              		.loc 1 317 1 is_stmt 1 view -0
 283              		.cfi_startproc
 284              		@ args = 0, pretend = 0, frame = 0
 285              		@ frame_needed = 0, uses_anonymous_args = 0
 317:USB_DEVICE/App/usbd_desc.c ****   UNUSED(speed);
 286              		.loc 1 317 1 is_stmt 0 view .LVU69
 287 0000 08B5     		push	{r3, lr}
ARM GAS  C:\Users\Bence\AppData\Local\Temp\cc7SQXsI.s 			page 14


 288              	.LCFI3:
 289              		.cfi_def_cfa_offset 8
 290              		.cfi_offset 3, -8
 291              		.cfi_offset 14, -4
 318:USB_DEVICE/App/usbd_desc.c ****   *length = USB_SIZ_STRING_SERIAL;
 292              		.loc 1 318 3 is_stmt 1 view .LVU70
 319:USB_DEVICE/App/usbd_desc.c **** 
 293              		.loc 1 319 3 view .LVU71
 319:USB_DEVICE/App/usbd_desc.c **** 
 294              		.loc 1 319 11 is_stmt 0 view .LVU72
 295 0002 1A23     		movs	r3, #26
 296 0004 0B80     		strh	r3, [r1]	@ movhi
 323:USB_DEVICE/App/usbd_desc.c ****   /* USER CODE BEGIN USBD_FS_SerialStrDescriptor */
 297              		.loc 1 323 3 is_stmt 1 view .LVU73
 298 0006 FFF7FEFF 		bl	Get_SerialNum
 299              	.LVL20:
 327:USB_DEVICE/App/usbd_desc.c **** }
 300              		.loc 1 327 3 view .LVU74
 328:USB_DEVICE/App/usbd_desc.c **** 
 301              		.loc 1 328 1 is_stmt 0 view .LVU75
 302 000a 0148     		ldr	r0, .L28
 303 000c 08BD     		pop	{r3, pc}
 304              	.L29:
 305 000e 00BF     		.align	2
 306              	.L28:
 307 0010 00000000 		.word	.LANCHOR3
 308              		.cfi_endproc
 309              	.LFE138:
 311              		.section	.rodata.USBD_FS_ProductStrDescriptor.str1.4,"aMS",%progbits,1
 312              		.align	2
 313              	.LC0:
 314 0000 42414C4C 		.ascii	"BALLUFF USB Device\000"
 314      55464620 
 314      55534220 
 314      44657669 
 314      636500
 315              		.section	.text.USBD_FS_ProductStrDescriptor,"ax",%progbits
 316              		.align	1
 317              		.global	USBD_FS_ProductStrDescriptor
 318              		.syntax unified
 319              		.thumb
 320              		.thumb_func
 322              	USBD_FS_ProductStrDescriptor:
 323              	.LVL21:
 324              	.LFB136:
 285:USB_DEVICE/App/usbd_desc.c ****   if(speed == 0)
 325              		.loc 1 285 1 is_stmt 1 view -0
 326              		.cfi_startproc
 327              		@ args = 0, pretend = 0, frame = 0
 328              		@ frame_needed = 0, uses_anonymous_args = 0
 285:USB_DEVICE/App/usbd_desc.c ****   if(speed == 0)
 329              		.loc 1 285 1 is_stmt 0 view .LVU77
 330 0000 08B5     		push	{r3, lr}
 331              	.LCFI4:
 332              		.cfi_def_cfa_offset 8
 333              		.cfi_offset 3, -8
 334              		.cfi_offset 14, -4
ARM GAS  C:\Users\Bence\AppData\Local\Temp\cc7SQXsI.s 			page 15


 335 0002 0A46     		mov	r2, r1
 286:USB_DEVICE/App/usbd_desc.c ****   {
 336              		.loc 1 286 3 is_stmt 1 view .LVU78
 286:USB_DEVICE/App/usbd_desc.c ****   {
 337              		.loc 1 286 5 is_stmt 0 view .LVU79
 338 0004 28B9     		cbnz	r0, .L31
 288:USB_DEVICE/App/usbd_desc.c ****   }
 339              		.loc 1 288 5 is_stmt 1 view .LVU80
 340 0006 0549     		ldr	r1, .L34
 341              	.LVL22:
 288:USB_DEVICE/App/usbd_desc.c ****   }
 342              		.loc 1 288 5 is_stmt 0 view .LVU81
 343 0008 0548     		ldr	r0, .L34+4
 344              	.LVL23:
 288:USB_DEVICE/App/usbd_desc.c ****   }
 345              		.loc 1 288 5 view .LVU82
 346 000a FFF7FEFF 		bl	USBD_GetString
 347              	.LVL24:
 348              	.L32:
 294:USB_DEVICE/App/usbd_desc.c **** }
 349              		.loc 1 294 3 is_stmt 1 view .LVU83
 295:USB_DEVICE/App/usbd_desc.c **** 
 350              		.loc 1 295 1 is_stmt 0 view .LVU84
 351 000e 0348     		ldr	r0, .L34
 352 0010 08BD     		pop	{r3, pc}
 353              	.LVL25:
 354              	.L31:
 292:USB_DEVICE/App/usbd_desc.c ****   }
 355              		.loc 1 292 5 is_stmt 1 view .LVU85
 356 0012 0249     		ldr	r1, .L34
 357              	.LVL26:
 292:USB_DEVICE/App/usbd_desc.c ****   }
 358              		.loc 1 292 5 is_stmt 0 view .LVU86
 359 0014 0248     		ldr	r0, .L34+4
 360              	.LVL27:
 292:USB_DEVICE/App/usbd_desc.c ****   }
 361              		.loc 1 292 5 view .LVU87
 362 0016 FFF7FEFF 		bl	USBD_GetString
 363              	.LVL28:
 292:USB_DEVICE/App/usbd_desc.c ****   }
 364              		.loc 1 292 5 view .LVU88
 365 001a F8E7     		b	.L32
 366              	.L35:
 367              		.align	2
 368              	.L34:
 369 001c 00000000 		.word	.LANCHOR4
 370 0020 00000000 		.word	.LC0
 371              		.cfi_endproc
 372              	.LFE136:
 374              		.section	.rodata.USBD_FS_ManufacturerStrDescriptor.str1.4,"aMS",%progbits,1
 375              		.align	2
 376              	.LC1:
 377 0000 53544D69 		.ascii	"STMicroelectronics\000"
 377      63726F65 
 377      6C656374 
 377      726F6E69 
 377      637300
ARM GAS  C:\Users\Bence\AppData\Local\Temp\cc7SQXsI.s 			page 16


 378              		.section	.text.USBD_FS_ManufacturerStrDescriptor,"ax",%progbits
 379              		.align	1
 380              		.global	USBD_FS_ManufacturerStrDescriptor
 381              		.syntax unified
 382              		.thumb
 383              		.thumb_func
 385              	USBD_FS_ManufacturerStrDescriptor:
 386              	.LVL29:
 387              	.LFB137:
 304:USB_DEVICE/App/usbd_desc.c ****   UNUSED(speed);
 388              		.loc 1 304 1 is_stmt 1 view -0
 389              		.cfi_startproc
 390              		@ args = 0, pretend = 0, frame = 0
 391              		@ frame_needed = 0, uses_anonymous_args = 0
 304:USB_DEVICE/App/usbd_desc.c ****   UNUSED(speed);
 392              		.loc 1 304 1 is_stmt 0 view .LVU90
 393 0000 10B5     		push	{r4, lr}
 394              	.LCFI5:
 395              		.cfi_def_cfa_offset 8
 396              		.cfi_offset 4, -8
 397              		.cfi_offset 14, -4
 398 0002 0A46     		mov	r2, r1
 305:USB_DEVICE/App/usbd_desc.c ****   USBD_GetString((uint8_t *)USBD_MANUFACTURER_STRING, USBD_StrDesc, length);
 399              		.loc 1 305 3 is_stmt 1 view .LVU91
 306:USB_DEVICE/App/usbd_desc.c ****   return USBD_StrDesc;
 400              		.loc 1 306 3 view .LVU92
 401 0004 034C     		ldr	r4, .L38
 402 0006 2146     		mov	r1, r4
 403              	.LVL30:
 306:USB_DEVICE/App/usbd_desc.c ****   return USBD_StrDesc;
 404              		.loc 1 306 3 is_stmt 0 view .LVU93
 405 0008 0348     		ldr	r0, .L38+4
 406              	.LVL31:
 306:USB_DEVICE/App/usbd_desc.c ****   return USBD_StrDesc;
 407              		.loc 1 306 3 view .LVU94
 408 000a FFF7FEFF 		bl	USBD_GetString
 409              	.LVL32:
 307:USB_DEVICE/App/usbd_desc.c **** }
 410              		.loc 1 307 3 is_stmt 1 view .LVU95
 308:USB_DEVICE/App/usbd_desc.c **** 
 411              		.loc 1 308 1 is_stmt 0 view .LVU96
 412 000e 2046     		mov	r0, r4
 413 0010 10BD     		pop	{r4, pc}
 414              	.L39:
 415 0012 00BF     		.align	2
 416              	.L38:
 417 0014 00000000 		.word	.LANCHOR4
 418 0018 00000000 		.word	.LC1
 419              		.cfi_endproc
 420              	.LFE137:
 422              		.section	.rodata.USBD_FS_ConfigStrDescriptor.str1.4,"aMS",%progbits,1
 423              		.align	2
 424              	.LC2:
 425 0000 43757374 		.ascii	"Custom HID Config\000"
 425      6F6D2048 
 425      49442043 
 425      6F6E6669 
ARM GAS  C:\Users\Bence\AppData\Local\Temp\cc7SQXsI.s 			page 17


 425      6700
 426              		.section	.text.USBD_FS_ConfigStrDescriptor,"ax",%progbits
 427              		.align	1
 428              		.global	USBD_FS_ConfigStrDescriptor
 429              		.syntax unified
 430              		.thumb
 431              		.thumb_func
 433              	USBD_FS_ConfigStrDescriptor:
 434              	.LVL33:
 435              	.LFB139:
 337:USB_DEVICE/App/usbd_desc.c ****   if(speed == USBD_SPEED_HIGH)
 436              		.loc 1 337 1 is_stmt 1 view -0
 437              		.cfi_startproc
 438              		@ args = 0, pretend = 0, frame = 0
 439              		@ frame_needed = 0, uses_anonymous_args = 0
 337:USB_DEVICE/App/usbd_desc.c ****   if(speed == USBD_SPEED_HIGH)
 440              		.loc 1 337 1 is_stmt 0 view .LVU98
 441 0000 08B5     		push	{r3, lr}
 442              	.LCFI6:
 443              		.cfi_def_cfa_offset 8
 444              		.cfi_offset 3, -8
 445              		.cfi_offset 14, -4
 446 0002 0A46     		mov	r2, r1
 338:USB_DEVICE/App/usbd_desc.c ****   {
 447              		.loc 1 338 3 is_stmt 1 view .LVU99
 338:USB_DEVICE/App/usbd_desc.c ****   {
 448              		.loc 1 338 5 is_stmt 0 view .LVU100
 449 0004 28B9     		cbnz	r0, .L41
 340:USB_DEVICE/App/usbd_desc.c ****   }
 450              		.loc 1 340 5 is_stmt 1 view .LVU101
 451 0006 0549     		ldr	r1, .L44
 452              	.LVL34:
 340:USB_DEVICE/App/usbd_desc.c ****   }
 453              		.loc 1 340 5 is_stmt 0 view .LVU102
 454 0008 0548     		ldr	r0, .L44+4
 455              	.LVL35:
 340:USB_DEVICE/App/usbd_desc.c ****   }
 456              		.loc 1 340 5 view .LVU103
 457 000a FFF7FEFF 		bl	USBD_GetString
 458              	.LVL36:
 459              	.L42:
 346:USB_DEVICE/App/usbd_desc.c **** }
 460              		.loc 1 346 3 is_stmt 1 view .LVU104
 347:USB_DEVICE/App/usbd_desc.c **** 
 461              		.loc 1 347 1 is_stmt 0 view .LVU105
 462 000e 0348     		ldr	r0, .L44
 463 0010 08BD     		pop	{r3, pc}
 464              	.LVL37:
 465              	.L41:
 344:USB_DEVICE/App/usbd_desc.c ****   }
 466              		.loc 1 344 5 is_stmt 1 view .LVU106
 467 0012 0249     		ldr	r1, .L44
 468              	.LVL38:
 344:USB_DEVICE/App/usbd_desc.c ****   }
 469              		.loc 1 344 5 is_stmt 0 view .LVU107
 470 0014 0248     		ldr	r0, .L44+4
 471              	.LVL39:
ARM GAS  C:\Users\Bence\AppData\Local\Temp\cc7SQXsI.s 			page 18


 344:USB_DEVICE/App/usbd_desc.c ****   }
 472              		.loc 1 344 5 view .LVU108
 473 0016 FFF7FEFF 		bl	USBD_GetString
 474              	.LVL40:
 344:USB_DEVICE/App/usbd_desc.c ****   }
 475              		.loc 1 344 5 view .LVU109
 476 001a F8E7     		b	.L42
 477              	.L45:
 478              		.align	2
 479              	.L44:
 480 001c 00000000 		.word	.LANCHOR4
 481 0020 00000000 		.word	.LC2
 482              		.cfi_endproc
 483              	.LFE139:
 485              		.section	.rodata.USBD_FS_InterfaceStrDescriptor.str1.4,"aMS",%progbits,1
 486              		.align	2
 487              	.LC3:
 488 0000 43757374 		.ascii	"Custom HID Interface\000"
 488      6F6D2048 
 488      49442049 
 488      6E746572 
 488      66616365 
 489              		.section	.text.USBD_FS_InterfaceStrDescriptor,"ax",%progbits
 490              		.align	1
 491              		.global	USBD_FS_InterfaceStrDescriptor
 492              		.syntax unified
 493              		.thumb
 494              		.thumb_func
 496              	USBD_FS_InterfaceStrDescriptor:
 497              	.LVL41:
 498              	.LFB140:
 356:USB_DEVICE/App/usbd_desc.c ****   if(speed == 0)
 499              		.loc 1 356 1 is_stmt 1 view -0
 500              		.cfi_startproc
 501              		@ args = 0, pretend = 0, frame = 0
 502              		@ frame_needed = 0, uses_anonymous_args = 0
 356:USB_DEVICE/App/usbd_desc.c ****   if(speed == 0)
 503              		.loc 1 356 1 is_stmt 0 view .LVU111
 504 0000 08B5     		push	{r3, lr}
 505              	.LCFI7:
 506              		.cfi_def_cfa_offset 8
 507              		.cfi_offset 3, -8
 508              		.cfi_offset 14, -4
 509 0002 0A46     		mov	r2, r1
 357:USB_DEVICE/App/usbd_desc.c ****   {
 510              		.loc 1 357 3 is_stmt 1 view .LVU112
 357:USB_DEVICE/App/usbd_desc.c ****   {
 511              		.loc 1 357 5 is_stmt 0 view .LVU113
 512 0004 28B9     		cbnz	r0, .L47
 359:USB_DEVICE/App/usbd_desc.c ****   }
 513              		.loc 1 359 5 is_stmt 1 view .LVU114
 514 0006 0549     		ldr	r1, .L50
 515              	.LVL42:
 359:USB_DEVICE/App/usbd_desc.c ****   }
 516              		.loc 1 359 5 is_stmt 0 view .LVU115
 517 0008 0548     		ldr	r0, .L50+4
 518              	.LVL43:
ARM GAS  C:\Users\Bence\AppData\Local\Temp\cc7SQXsI.s 			page 19


 359:USB_DEVICE/App/usbd_desc.c ****   }
 519              		.loc 1 359 5 view .LVU116
 520 000a FFF7FEFF 		bl	USBD_GetString
 521              	.LVL44:
 522              	.L48:
 365:USB_DEVICE/App/usbd_desc.c **** }
 523              		.loc 1 365 3 is_stmt 1 view .LVU117
 366:USB_DEVICE/App/usbd_desc.c **** 
 524              		.loc 1 366 1 is_stmt 0 view .LVU118
 525 000e 0348     		ldr	r0, .L50
 526 0010 08BD     		pop	{r3, pc}
 527              	.LVL45:
 528              	.L47:
 363:USB_DEVICE/App/usbd_desc.c ****   }
 529              		.loc 1 363 5 is_stmt 1 view .LVU119
 530 0012 0249     		ldr	r1, .L50
 531              	.LVL46:
 363:USB_DEVICE/App/usbd_desc.c ****   }
 532              		.loc 1 363 5 is_stmt 0 view .LVU120
 533 0014 0248     		ldr	r0, .L50+4
 534              	.LVL47:
 363:USB_DEVICE/App/usbd_desc.c ****   }
 535              		.loc 1 363 5 view .LVU121
 536 0016 FFF7FEFF 		bl	USBD_GetString
 537              	.LVL48:
 363:USB_DEVICE/App/usbd_desc.c ****   }
 538              		.loc 1 363 5 view .LVU122
 539 001a F8E7     		b	.L48
 540              	.L51:
 541              		.align	2
 542              	.L50:
 543 001c 00000000 		.word	.LANCHOR4
 544 0020 00000000 		.word	.LC3
 545              		.cfi_endproc
 546              	.LFE140:
 548              		.global	USBD_StringSerial
 549              		.global	USBD_StrDesc
 550              		.global	USBD_LangIDDesc
 551              		.global	USBD_FS_BOSDesc
 552              		.global	USBD_FS_DeviceDesc
 553              		.global	FS_Desc
 554              		.section	.bss.USBD_StrDesc,"aw",%nobits
 555              		.align	2
 556              		.set	.LANCHOR4,. + 0
 559              	USBD_StrDesc:
 560 0000 00000000 		.space	512
 560      00000000 
 560      00000000 
 560      00000000 
 560      00000000 
 561              		.section	.data.FS_Desc,"aw"
 562              		.align	2
 565              	FS_Desc:
 566 0000 00000000 		.word	USBD_FS_DeviceDescriptor
 567 0004 00000000 		.word	USBD_FS_LangIDStrDescriptor
 568 0008 00000000 		.word	USBD_FS_ManufacturerStrDescriptor
 569 000c 00000000 		.word	USBD_FS_ProductStrDescriptor
ARM GAS  C:\Users\Bence\AppData\Local\Temp\cc7SQXsI.s 			page 20


 570 0010 00000000 		.word	USBD_FS_SerialStrDescriptor
 571 0014 00000000 		.word	USBD_FS_ConfigStrDescriptor
 572 0018 00000000 		.word	USBD_FS_InterfaceStrDescriptor
 573 001c 00000000 		.word	USBD_FS_USR_BOSDescriptor
 574              		.section	.data.USBD_FS_BOSDesc,"aw"
 575              		.align	2
 576              		.set	.LANCHOR2,. + 0
 579              	USBD_FS_BOSDesc:
 580 0000 050F0C00 		.ascii	"\005\017\014\000\001\007\020\002\002\000\000\000"
 580      01071002 
 580      02000000 
 581              		.section	.data.USBD_FS_DeviceDesc,"aw"
 582              		.align	2
 583              		.set	.LANCHOR0,. + 0
 586              	USBD_FS_DeviceDesc:
 587 0000 12010102 		.ascii	"\022\001\001\002\000\000\000@\203\004PW\000\002\001"
 587      00000040 
 587      83045057 
 587      000201
 588 000f 020301   		.ascii	"\002\003\001"
 589              		.section	.data.USBD_LangIDDesc,"aw"
 590              		.align	2
 591              		.set	.LANCHOR1,. + 0
 594              	USBD_LangIDDesc:
 595 0000 04030904 		.ascii	"\004\003\011\004"
 596              		.section	.data.USBD_StringSerial,"aw"
 597              		.align	2
 598              		.set	.LANCHOR3,. + 0
 601              	USBD_StringSerial:
 602 0000 1A0300   		.ascii	"\032\003\000"
 603 0003 00000000 		.space	23
 603      00000000 
 603      00000000 
 603      00000000 
 603      00000000 
 604              		.text
 605              	.Letext0:
 606              		.file 2 "c:\\users\\bence\\.vscode\\extensions\\buzzyelectronics.stm-helper-1.3.0\\armgcc\\arm-non
 607              		.file 3 "c:\\users\\bence\\.vscode\\extensions\\buzzyelectronics.stm-helper-1.3.0\\armgcc\\arm-non
 608              		.file 4 "Middlewares/ST/STM32_USB_Device_Library/Core/Inc/usbd_def.h"
 609              		.file 5 "USB_DEVICE/App/usbd_desc.h"
 610              		.file 6 "Middlewares/ST/STM32_USB_Device_Library/Core/Inc/usbd_ctlreq.h"
ARM GAS  C:\Users\Bence\AppData\Local\Temp\cc7SQXsI.s 			page 21

