ARM GAS  C:\Users\Bence\AppData\Local\Temp\cc6pT357.s 			page 1


   1              		.cpu cortex-m4
   2              		.arch armv7e-m
   3              		.fpu fpv4-sp-d16
   4              		.eabi_attribute 27, 1
   5              		.eabi_attribute 28, 1
   6              		.eabi_attribute 20, 1
   7              		.eabi_attribute 21, 1
   8              		.eabi_attribute 23, 3
   9              		.eabi_attribute 24, 1
  10              		.eabi_attribute 25, 1
  11              		.eabi_attribute 26, 1
  12              		.eabi_attribute 30, 1
  13              		.eabi_attribute 34, 1
  14              		.eabi_attribute 18, 4
  15              		.file	"usbd_customhid.c"
  16              		.text
  17              	.Ltext0:
  18              		.cfi_sections	.debug_frame
  19              		.section	.text.USBD_CUSTOM_HID_DataIn,"ax",%progbits
  20              		.align	1
  21              		.syntax unified
  22              		.thumb
  23              		.thumb_func
  25              	USBD_CUSTOM_HID_DataIn:
  26              	.LVL0:
  27              	.LFB141:
  28              		.file 1 "Middlewares/ST/STM32_USB_Device_Library/Class/CustomHID/Src/usbd_customhid.c"
   1:Middlewares/ST/STM32_USB_Device_Library/Class/CustomHID/Src/usbd_customhid.c **** /**
   2:Middlewares/ST/STM32_USB_Device_Library/Class/CustomHID/Src/usbd_customhid.c ****   ******************************************************************************
   3:Middlewares/ST/STM32_USB_Device_Library/Class/CustomHID/Src/usbd_customhid.c ****   * @file    usbd_customhid.c
   4:Middlewares/ST/STM32_USB_Device_Library/Class/CustomHID/Src/usbd_customhid.c ****   * @author  MCD Application Team
   5:Middlewares/ST/STM32_USB_Device_Library/Class/CustomHID/Src/usbd_customhid.c ****   * @brief   This file provides the CUSTOM_HID core functions.
   6:Middlewares/ST/STM32_USB_Device_Library/Class/CustomHID/Src/usbd_customhid.c ****   *
   7:Middlewares/ST/STM32_USB_Device_Library/Class/CustomHID/Src/usbd_customhid.c ****   ******************************************************************************
   8:Middlewares/ST/STM32_USB_Device_Library/Class/CustomHID/Src/usbd_customhid.c ****   * @attention
   9:Middlewares/ST/STM32_USB_Device_Library/Class/CustomHID/Src/usbd_customhid.c ****   *
  10:Middlewares/ST/STM32_USB_Device_Library/Class/CustomHID/Src/usbd_customhid.c ****   * Copyright (c) 2015 STMicroelectronics.
  11:Middlewares/ST/STM32_USB_Device_Library/Class/CustomHID/Src/usbd_customhid.c ****   * All rights reserved.
  12:Middlewares/ST/STM32_USB_Device_Library/Class/CustomHID/Src/usbd_customhid.c ****   *
  13:Middlewares/ST/STM32_USB_Device_Library/Class/CustomHID/Src/usbd_customhid.c ****   * This software is licensed under terms that can be found in the LICENSE file
  14:Middlewares/ST/STM32_USB_Device_Library/Class/CustomHID/Src/usbd_customhid.c ****   * in the root directory of this software component.
  15:Middlewares/ST/STM32_USB_Device_Library/Class/CustomHID/Src/usbd_customhid.c ****   * If no LICENSE file comes with this software, it is provided AS-IS.
  16:Middlewares/ST/STM32_USB_Device_Library/Class/CustomHID/Src/usbd_customhid.c ****   *
  17:Middlewares/ST/STM32_USB_Device_Library/Class/CustomHID/Src/usbd_customhid.c ****   ******************************************************************************
  18:Middlewares/ST/STM32_USB_Device_Library/Class/CustomHID/Src/usbd_customhid.c ****   * @verbatim
  19:Middlewares/ST/STM32_USB_Device_Library/Class/CustomHID/Src/usbd_customhid.c ****   *
  20:Middlewares/ST/STM32_USB_Device_Library/Class/CustomHID/Src/usbd_customhid.c ****   *          ===================================================================
  21:Middlewares/ST/STM32_USB_Device_Library/Class/CustomHID/Src/usbd_customhid.c ****   *                                CUSTOM_HID Class  Description
  22:Middlewares/ST/STM32_USB_Device_Library/Class/CustomHID/Src/usbd_customhid.c ****   *          ===================================================================
  23:Middlewares/ST/STM32_USB_Device_Library/Class/CustomHID/Src/usbd_customhid.c ****   *           This module manages the CUSTOM_HID class V1.11 following the "Device Class Definition
  24:Middlewares/ST/STM32_USB_Device_Library/Class/CustomHID/Src/usbd_customhid.c ****   *           for Human Interface Devices (CUSTOM_HID) Version 1.11 Jun 27, 2001".
  25:Middlewares/ST/STM32_USB_Device_Library/Class/CustomHID/Src/usbd_customhid.c ****   *           This driver implements the following aspects of the specification:
  26:Middlewares/ST/STM32_USB_Device_Library/Class/CustomHID/Src/usbd_customhid.c ****   *             - The Boot Interface Subclass
  27:Middlewares/ST/STM32_USB_Device_Library/Class/CustomHID/Src/usbd_customhid.c ****   *             - Usage Page : Generic Desktop
  28:Middlewares/ST/STM32_USB_Device_Library/Class/CustomHID/Src/usbd_customhid.c ****   *             - Usage : Vendor
  29:Middlewares/ST/STM32_USB_Device_Library/Class/CustomHID/Src/usbd_customhid.c ****   *             - Collection : Application
  30:Middlewares/ST/STM32_USB_Device_Library/Class/CustomHID/Src/usbd_customhid.c ****   *
ARM GAS  C:\Users\Bence\AppData\Local\Temp\cc6pT357.s 			page 2


  31:Middlewares/ST/STM32_USB_Device_Library/Class/CustomHID/Src/usbd_customhid.c ****   * @note     In HS mode and when the DMA is used, all variables and data structures
  32:Middlewares/ST/STM32_USB_Device_Library/Class/CustomHID/Src/usbd_customhid.c ****   *           dealing with the DMA during the transaction process should be 32-bit aligned.
  33:Middlewares/ST/STM32_USB_Device_Library/Class/CustomHID/Src/usbd_customhid.c ****   *
  34:Middlewares/ST/STM32_USB_Device_Library/Class/CustomHID/Src/usbd_customhid.c ****   *
  35:Middlewares/ST/STM32_USB_Device_Library/Class/CustomHID/Src/usbd_customhid.c ****   *  @endverbatim
  36:Middlewares/ST/STM32_USB_Device_Library/Class/CustomHID/Src/usbd_customhid.c ****   *
  37:Middlewares/ST/STM32_USB_Device_Library/Class/CustomHID/Src/usbd_customhid.c ****   ******************************************************************************
  38:Middlewares/ST/STM32_USB_Device_Library/Class/CustomHID/Src/usbd_customhid.c ****   */
  39:Middlewares/ST/STM32_USB_Device_Library/Class/CustomHID/Src/usbd_customhid.c **** 
  40:Middlewares/ST/STM32_USB_Device_Library/Class/CustomHID/Src/usbd_customhid.c **** /* BSPDependencies
  41:Middlewares/ST/STM32_USB_Device_Library/Class/CustomHID/Src/usbd_customhid.c **** - "stm32xxxxx_{eval}{discovery}{nucleo_144}.c"
  42:Middlewares/ST/STM32_USB_Device_Library/Class/CustomHID/Src/usbd_customhid.c **** - "stm32xxxxx_{eval}{discovery}_io.c"
  43:Middlewares/ST/STM32_USB_Device_Library/Class/CustomHID/Src/usbd_customhid.c **** EndBSPDependencies */
  44:Middlewares/ST/STM32_USB_Device_Library/Class/CustomHID/Src/usbd_customhid.c **** 
  45:Middlewares/ST/STM32_USB_Device_Library/Class/CustomHID/Src/usbd_customhid.c **** /* Includes ------------------------------------------------------------------*/
  46:Middlewares/ST/STM32_USB_Device_Library/Class/CustomHID/Src/usbd_customhid.c **** #include "usbd_customhid.h"
  47:Middlewares/ST/STM32_USB_Device_Library/Class/CustomHID/Src/usbd_customhid.c **** #include "usbd_ctlreq.h"
  48:Middlewares/ST/STM32_USB_Device_Library/Class/CustomHID/Src/usbd_customhid.c **** 
  49:Middlewares/ST/STM32_USB_Device_Library/Class/CustomHID/Src/usbd_customhid.c **** 
  50:Middlewares/ST/STM32_USB_Device_Library/Class/CustomHID/Src/usbd_customhid.c **** /** @addtogroup STM32_USB_DEVICE_LIBRARY
  51:Middlewares/ST/STM32_USB_Device_Library/Class/CustomHID/Src/usbd_customhid.c ****   * @{
  52:Middlewares/ST/STM32_USB_Device_Library/Class/CustomHID/Src/usbd_customhid.c ****   */
  53:Middlewares/ST/STM32_USB_Device_Library/Class/CustomHID/Src/usbd_customhid.c **** 
  54:Middlewares/ST/STM32_USB_Device_Library/Class/CustomHID/Src/usbd_customhid.c **** 
  55:Middlewares/ST/STM32_USB_Device_Library/Class/CustomHID/Src/usbd_customhid.c **** /** @defgroup USBD_CUSTOM_HID
  56:Middlewares/ST/STM32_USB_Device_Library/Class/CustomHID/Src/usbd_customhid.c ****   * @brief usbd core module
  57:Middlewares/ST/STM32_USB_Device_Library/Class/CustomHID/Src/usbd_customhid.c ****   * @{
  58:Middlewares/ST/STM32_USB_Device_Library/Class/CustomHID/Src/usbd_customhid.c ****   */
  59:Middlewares/ST/STM32_USB_Device_Library/Class/CustomHID/Src/usbd_customhid.c **** 
  60:Middlewares/ST/STM32_USB_Device_Library/Class/CustomHID/Src/usbd_customhid.c **** /** @defgroup USBD_CUSTOM_HID_Private_TypesDefinitions
  61:Middlewares/ST/STM32_USB_Device_Library/Class/CustomHID/Src/usbd_customhid.c ****   * @{
  62:Middlewares/ST/STM32_USB_Device_Library/Class/CustomHID/Src/usbd_customhid.c ****   */
  63:Middlewares/ST/STM32_USB_Device_Library/Class/CustomHID/Src/usbd_customhid.c **** /**
  64:Middlewares/ST/STM32_USB_Device_Library/Class/CustomHID/Src/usbd_customhid.c ****   * @}
  65:Middlewares/ST/STM32_USB_Device_Library/Class/CustomHID/Src/usbd_customhid.c ****   */
  66:Middlewares/ST/STM32_USB_Device_Library/Class/CustomHID/Src/usbd_customhid.c **** 
  67:Middlewares/ST/STM32_USB_Device_Library/Class/CustomHID/Src/usbd_customhid.c **** 
  68:Middlewares/ST/STM32_USB_Device_Library/Class/CustomHID/Src/usbd_customhid.c **** /** @defgroup USBD_CUSTOM_HID_Private_Defines
  69:Middlewares/ST/STM32_USB_Device_Library/Class/CustomHID/Src/usbd_customhid.c ****   * @{
  70:Middlewares/ST/STM32_USB_Device_Library/Class/CustomHID/Src/usbd_customhid.c ****   */
  71:Middlewares/ST/STM32_USB_Device_Library/Class/CustomHID/Src/usbd_customhid.c **** 
  72:Middlewares/ST/STM32_USB_Device_Library/Class/CustomHID/Src/usbd_customhid.c **** /**
  73:Middlewares/ST/STM32_USB_Device_Library/Class/CustomHID/Src/usbd_customhid.c ****   * @}
  74:Middlewares/ST/STM32_USB_Device_Library/Class/CustomHID/Src/usbd_customhid.c ****   */
  75:Middlewares/ST/STM32_USB_Device_Library/Class/CustomHID/Src/usbd_customhid.c **** 
  76:Middlewares/ST/STM32_USB_Device_Library/Class/CustomHID/Src/usbd_customhid.c **** 
  77:Middlewares/ST/STM32_USB_Device_Library/Class/CustomHID/Src/usbd_customhid.c **** /** @defgroup USBD_CUSTOM_HID_Private_Macros
  78:Middlewares/ST/STM32_USB_Device_Library/Class/CustomHID/Src/usbd_customhid.c ****   * @{
  79:Middlewares/ST/STM32_USB_Device_Library/Class/CustomHID/Src/usbd_customhid.c ****   */
  80:Middlewares/ST/STM32_USB_Device_Library/Class/CustomHID/Src/usbd_customhid.c **** /**
  81:Middlewares/ST/STM32_USB_Device_Library/Class/CustomHID/Src/usbd_customhid.c ****   * @}
  82:Middlewares/ST/STM32_USB_Device_Library/Class/CustomHID/Src/usbd_customhid.c ****   */
  83:Middlewares/ST/STM32_USB_Device_Library/Class/CustomHID/Src/usbd_customhid.c **** /** @defgroup USBD_CUSTOM_HID_Private_FunctionPrototypes
  84:Middlewares/ST/STM32_USB_Device_Library/Class/CustomHID/Src/usbd_customhid.c ****   * @{
  85:Middlewares/ST/STM32_USB_Device_Library/Class/CustomHID/Src/usbd_customhid.c ****   */
  86:Middlewares/ST/STM32_USB_Device_Library/Class/CustomHID/Src/usbd_customhid.c **** 
  87:Middlewares/ST/STM32_USB_Device_Library/Class/CustomHID/Src/usbd_customhid.c **** static uint8_t USBD_CUSTOM_HID_Init(USBD_HandleTypeDef *pdev, uint8_t cfgidx);
ARM GAS  C:\Users\Bence\AppData\Local\Temp\cc6pT357.s 			page 3


  88:Middlewares/ST/STM32_USB_Device_Library/Class/CustomHID/Src/usbd_customhid.c **** static uint8_t USBD_CUSTOM_HID_DeInit(USBD_HandleTypeDef *pdev, uint8_t cfgidx);
  89:Middlewares/ST/STM32_USB_Device_Library/Class/CustomHID/Src/usbd_customhid.c **** static uint8_t USBD_CUSTOM_HID_Setup(USBD_HandleTypeDef *pdev, USBD_SetupReqTypedef *req);
  90:Middlewares/ST/STM32_USB_Device_Library/Class/CustomHID/Src/usbd_customhid.c **** 
  91:Middlewares/ST/STM32_USB_Device_Library/Class/CustomHID/Src/usbd_customhid.c **** static uint8_t USBD_CUSTOM_HID_DataIn(USBD_HandleTypeDef *pdev, uint8_t epnum);
  92:Middlewares/ST/STM32_USB_Device_Library/Class/CustomHID/Src/usbd_customhid.c **** static uint8_t USBD_CUSTOM_HID_DataOut(USBD_HandleTypeDef *pdev, uint8_t epnum);
  93:Middlewares/ST/STM32_USB_Device_Library/Class/CustomHID/Src/usbd_customhid.c **** static uint8_t USBD_CUSTOM_HID_EP0_RxReady(USBD_HandleTypeDef  *pdev);
  94:Middlewares/ST/STM32_USB_Device_Library/Class/CustomHID/Src/usbd_customhid.c **** #ifndef USE_USBD_COMPOSITE
  95:Middlewares/ST/STM32_USB_Device_Library/Class/CustomHID/Src/usbd_customhid.c **** static uint8_t *USBD_CUSTOM_HID_GetFSCfgDesc(uint16_t *length);
  96:Middlewares/ST/STM32_USB_Device_Library/Class/CustomHID/Src/usbd_customhid.c **** static uint8_t *USBD_CUSTOM_HID_GetHSCfgDesc(uint16_t *length);
  97:Middlewares/ST/STM32_USB_Device_Library/Class/CustomHID/Src/usbd_customhid.c **** static uint8_t *USBD_CUSTOM_HID_GetOtherSpeedCfgDesc(uint16_t *length);
  98:Middlewares/ST/STM32_USB_Device_Library/Class/CustomHID/Src/usbd_customhid.c **** static uint8_t *USBD_CUSTOM_HID_GetDeviceQualifierDesc(uint16_t *length);
  99:Middlewares/ST/STM32_USB_Device_Library/Class/CustomHID/Src/usbd_customhid.c **** #endif /* USE_USBD_COMPOSITE  */
 100:Middlewares/ST/STM32_USB_Device_Library/Class/CustomHID/Src/usbd_customhid.c **** /**
 101:Middlewares/ST/STM32_USB_Device_Library/Class/CustomHID/Src/usbd_customhid.c ****   * @}
 102:Middlewares/ST/STM32_USB_Device_Library/Class/CustomHID/Src/usbd_customhid.c ****   */
 103:Middlewares/ST/STM32_USB_Device_Library/Class/CustomHID/Src/usbd_customhid.c **** 
 104:Middlewares/ST/STM32_USB_Device_Library/Class/CustomHID/Src/usbd_customhid.c **** /** @defgroup USBD_CUSTOM_HID_Private_Variables
 105:Middlewares/ST/STM32_USB_Device_Library/Class/CustomHID/Src/usbd_customhid.c ****   * @{
 106:Middlewares/ST/STM32_USB_Device_Library/Class/CustomHID/Src/usbd_customhid.c ****   */
 107:Middlewares/ST/STM32_USB_Device_Library/Class/CustomHID/Src/usbd_customhid.c **** 
 108:Middlewares/ST/STM32_USB_Device_Library/Class/CustomHID/Src/usbd_customhid.c **** USBD_ClassTypeDef  USBD_CUSTOM_HID =
 109:Middlewares/ST/STM32_USB_Device_Library/Class/CustomHID/Src/usbd_customhid.c **** {
 110:Middlewares/ST/STM32_USB_Device_Library/Class/CustomHID/Src/usbd_customhid.c ****   USBD_CUSTOM_HID_Init,
 111:Middlewares/ST/STM32_USB_Device_Library/Class/CustomHID/Src/usbd_customhid.c ****   USBD_CUSTOM_HID_DeInit,
 112:Middlewares/ST/STM32_USB_Device_Library/Class/CustomHID/Src/usbd_customhid.c ****   USBD_CUSTOM_HID_Setup,
 113:Middlewares/ST/STM32_USB_Device_Library/Class/CustomHID/Src/usbd_customhid.c ****   NULL, /*EP0_TxSent*/
 114:Middlewares/ST/STM32_USB_Device_Library/Class/CustomHID/Src/usbd_customhid.c ****   USBD_CUSTOM_HID_EP0_RxReady, /*EP0_RxReady*/ /* STATUS STAGE IN */
 115:Middlewares/ST/STM32_USB_Device_Library/Class/CustomHID/Src/usbd_customhid.c ****   USBD_CUSTOM_HID_DataIn, /*DataIn*/
 116:Middlewares/ST/STM32_USB_Device_Library/Class/CustomHID/Src/usbd_customhid.c ****   USBD_CUSTOM_HID_DataOut,
 117:Middlewares/ST/STM32_USB_Device_Library/Class/CustomHID/Src/usbd_customhid.c ****   NULL, /*SOF */
 118:Middlewares/ST/STM32_USB_Device_Library/Class/CustomHID/Src/usbd_customhid.c ****   NULL,
 119:Middlewares/ST/STM32_USB_Device_Library/Class/CustomHID/Src/usbd_customhid.c ****   NULL,
 120:Middlewares/ST/STM32_USB_Device_Library/Class/CustomHID/Src/usbd_customhid.c **** #ifdef USE_USBD_COMPOSITE
 121:Middlewares/ST/STM32_USB_Device_Library/Class/CustomHID/Src/usbd_customhid.c ****   NULL,
 122:Middlewares/ST/STM32_USB_Device_Library/Class/CustomHID/Src/usbd_customhid.c ****   NULL,
 123:Middlewares/ST/STM32_USB_Device_Library/Class/CustomHID/Src/usbd_customhid.c ****   NULL,
 124:Middlewares/ST/STM32_USB_Device_Library/Class/CustomHID/Src/usbd_customhid.c ****   NULL,
 125:Middlewares/ST/STM32_USB_Device_Library/Class/CustomHID/Src/usbd_customhid.c **** #else
 126:Middlewares/ST/STM32_USB_Device_Library/Class/CustomHID/Src/usbd_customhid.c ****   USBD_CUSTOM_HID_GetHSCfgDesc,
 127:Middlewares/ST/STM32_USB_Device_Library/Class/CustomHID/Src/usbd_customhid.c ****   USBD_CUSTOM_HID_GetFSCfgDesc,
 128:Middlewares/ST/STM32_USB_Device_Library/Class/CustomHID/Src/usbd_customhid.c ****   USBD_CUSTOM_HID_GetOtherSpeedCfgDesc,
 129:Middlewares/ST/STM32_USB_Device_Library/Class/CustomHID/Src/usbd_customhid.c ****   USBD_CUSTOM_HID_GetDeviceQualifierDesc,
 130:Middlewares/ST/STM32_USB_Device_Library/Class/CustomHID/Src/usbd_customhid.c **** #endif /* USE_USBD_COMPOSITE  */
 131:Middlewares/ST/STM32_USB_Device_Library/Class/CustomHID/Src/usbd_customhid.c **** };
 132:Middlewares/ST/STM32_USB_Device_Library/Class/CustomHID/Src/usbd_customhid.c **** 
 133:Middlewares/ST/STM32_USB_Device_Library/Class/CustomHID/Src/usbd_customhid.c **** #ifndef USE_USBD_COMPOSITE
 134:Middlewares/ST/STM32_USB_Device_Library/Class/CustomHID/Src/usbd_customhid.c **** /* USB CUSTOM_HID device FS Configuration Descriptor */
 135:Middlewares/ST/STM32_USB_Device_Library/Class/CustomHID/Src/usbd_customhid.c **** __ALIGN_BEGIN static uint8_t USBD_CUSTOM_HID_CfgDesc[USB_CUSTOM_HID_CONFIG_DESC_SIZ] __ALIGN_END =
 136:Middlewares/ST/STM32_USB_Device_Library/Class/CustomHID/Src/usbd_customhid.c **** {
 137:Middlewares/ST/STM32_USB_Device_Library/Class/CustomHID/Src/usbd_customhid.c ****   0x09,                                               /* bLength: Configuration Descriptor size */
 138:Middlewares/ST/STM32_USB_Device_Library/Class/CustomHID/Src/usbd_customhid.c ****   USB_DESC_TYPE_CONFIGURATION,                        /* bDescriptorType: Configuration */
 139:Middlewares/ST/STM32_USB_Device_Library/Class/CustomHID/Src/usbd_customhid.c ****   USB_CUSTOM_HID_CONFIG_DESC_SIZ,                     /* wTotalLength: Bytes returned */
 140:Middlewares/ST/STM32_USB_Device_Library/Class/CustomHID/Src/usbd_customhid.c ****   0x00,
 141:Middlewares/ST/STM32_USB_Device_Library/Class/CustomHID/Src/usbd_customhid.c ****   0x01,                                               /* bNumInterfaces: 1 interface */
 142:Middlewares/ST/STM32_USB_Device_Library/Class/CustomHID/Src/usbd_customhid.c ****   0x01,                                               /* bConfigurationValue: Configuration value *
 143:Middlewares/ST/STM32_USB_Device_Library/Class/CustomHID/Src/usbd_customhid.c ****   0x00,                                               /* iConfiguration: Index of string descriptor
 144:Middlewares/ST/STM32_USB_Device_Library/Class/CustomHID/Src/usbd_customhid.c ****                                                          describing the configuration */
ARM GAS  C:\Users\Bence\AppData\Local\Temp\cc6pT357.s 			page 4


 145:Middlewares/ST/STM32_USB_Device_Library/Class/CustomHID/Src/usbd_customhid.c **** #if (USBD_SELF_POWERED == 1U)
 146:Middlewares/ST/STM32_USB_Device_Library/Class/CustomHID/Src/usbd_customhid.c ****   0xC0,                                               /* bmAttributes: Bus Powered according to use
 147:Middlewares/ST/STM32_USB_Device_Library/Class/CustomHID/Src/usbd_customhid.c **** #else
 148:Middlewares/ST/STM32_USB_Device_Library/Class/CustomHID/Src/usbd_customhid.c ****   0x80,                                               /* bmAttributes: Bus Powered according to use
 149:Middlewares/ST/STM32_USB_Device_Library/Class/CustomHID/Src/usbd_customhid.c **** #endif /* USBD_SELF_POWERED */
 150:Middlewares/ST/STM32_USB_Device_Library/Class/CustomHID/Src/usbd_customhid.c ****   USBD_MAX_POWER,                                     /* MaxPower (mA) */
 151:Middlewares/ST/STM32_USB_Device_Library/Class/CustomHID/Src/usbd_customhid.c **** 
 152:Middlewares/ST/STM32_USB_Device_Library/Class/CustomHID/Src/usbd_customhid.c ****   /************** Descriptor of CUSTOM HID interface ****************/
 153:Middlewares/ST/STM32_USB_Device_Library/Class/CustomHID/Src/usbd_customhid.c ****   /* 09 */
 154:Middlewares/ST/STM32_USB_Device_Library/Class/CustomHID/Src/usbd_customhid.c ****   0x09,                                               /* bLength: Interface Descriptor size*/
 155:Middlewares/ST/STM32_USB_Device_Library/Class/CustomHID/Src/usbd_customhid.c ****   USB_DESC_TYPE_INTERFACE,                            /* bDescriptorType: Interface descriptor type
 156:Middlewares/ST/STM32_USB_Device_Library/Class/CustomHID/Src/usbd_customhid.c ****   0x00,                                               /* bInterfaceNumber: Number of Interface */
 157:Middlewares/ST/STM32_USB_Device_Library/Class/CustomHID/Src/usbd_customhid.c ****   0x00,                                               /* bAlternateSetting: Alternate setting */
 158:Middlewares/ST/STM32_USB_Device_Library/Class/CustomHID/Src/usbd_customhid.c ****   0x02,                                               /* bNumEndpoints*/
 159:Middlewares/ST/STM32_USB_Device_Library/Class/CustomHID/Src/usbd_customhid.c ****   0x03,                                               /* bInterfaceClass: CUSTOM_HID */
 160:Middlewares/ST/STM32_USB_Device_Library/Class/CustomHID/Src/usbd_customhid.c ****   0x00,                                               /* bInterfaceSubClass : 1=BOOT, 0=no boot */
 161:Middlewares/ST/STM32_USB_Device_Library/Class/CustomHID/Src/usbd_customhid.c ****   0x00,                                               /* nInterfaceProtocol : 0=none, 1=keyboard, 2
 162:Middlewares/ST/STM32_USB_Device_Library/Class/CustomHID/Src/usbd_customhid.c ****   0x00,                                               /* iInterface: Index of string descriptor */
 163:Middlewares/ST/STM32_USB_Device_Library/Class/CustomHID/Src/usbd_customhid.c ****   /******************** Descriptor of CUSTOM_HID *************************/
 164:Middlewares/ST/STM32_USB_Device_Library/Class/CustomHID/Src/usbd_customhid.c ****   /* 18 */
 165:Middlewares/ST/STM32_USB_Device_Library/Class/CustomHID/Src/usbd_customhid.c ****   0x09,                                               /* bLength: CUSTOM_HID Descriptor size */
 166:Middlewares/ST/STM32_USB_Device_Library/Class/CustomHID/Src/usbd_customhid.c ****   CUSTOM_HID_DESCRIPTOR_TYPE,                         /* bDescriptorType: CUSTOM_HID */
 167:Middlewares/ST/STM32_USB_Device_Library/Class/CustomHID/Src/usbd_customhid.c ****   0x11,                                               /* bCUSTOM_HIDUSTOM_HID: CUSTOM_HID Class Spe
 168:Middlewares/ST/STM32_USB_Device_Library/Class/CustomHID/Src/usbd_customhid.c ****   0x01,
 169:Middlewares/ST/STM32_USB_Device_Library/Class/CustomHID/Src/usbd_customhid.c ****   0x00,                                               /* bCountryCode: Hardware target country */
 170:Middlewares/ST/STM32_USB_Device_Library/Class/CustomHID/Src/usbd_customhid.c ****   0x01,                                               /* bNumDescriptors: Number of CUSTOM_HID clas
 171:Middlewares/ST/STM32_USB_Device_Library/Class/CustomHID/Src/usbd_customhid.c ****                                                          to follow */
 172:Middlewares/ST/STM32_USB_Device_Library/Class/CustomHID/Src/usbd_customhid.c ****   0x22,                                               /* bDescriptorType */
 173:Middlewares/ST/STM32_USB_Device_Library/Class/CustomHID/Src/usbd_customhid.c ****   USBD_CUSTOM_HID_REPORT_DESC_SIZE,                   /* wItemLength: Total length of Report descri
 174:Middlewares/ST/STM32_USB_Device_Library/Class/CustomHID/Src/usbd_customhid.c ****   0x00,
 175:Middlewares/ST/STM32_USB_Device_Library/Class/CustomHID/Src/usbd_customhid.c ****   /******************** Descriptor of Custom HID endpoints ********************/
 176:Middlewares/ST/STM32_USB_Device_Library/Class/CustomHID/Src/usbd_customhid.c ****   /* 27 */
 177:Middlewares/ST/STM32_USB_Device_Library/Class/CustomHID/Src/usbd_customhid.c ****   0x07,                                               /* bLength: Endpoint Descriptor size */
 178:Middlewares/ST/STM32_USB_Device_Library/Class/CustomHID/Src/usbd_customhid.c ****   USB_DESC_TYPE_ENDPOINT,                             /* bDescriptorType: */
 179:Middlewares/ST/STM32_USB_Device_Library/Class/CustomHID/Src/usbd_customhid.c **** 
 180:Middlewares/ST/STM32_USB_Device_Library/Class/CustomHID/Src/usbd_customhid.c ****   CUSTOM_HID_EPIN_ADDR,                               /* bEndpointAddress: Endpoint Address (IN) */
 181:Middlewares/ST/STM32_USB_Device_Library/Class/CustomHID/Src/usbd_customhid.c ****   0x03,                                               /* bmAttributes: Interrupt endpoint */
 182:Middlewares/ST/STM32_USB_Device_Library/Class/CustomHID/Src/usbd_customhid.c ****   CUSTOM_HID_EPIN_SIZE,                               /* wMaxPacketSize: 2 Bytes max */
 183:Middlewares/ST/STM32_USB_Device_Library/Class/CustomHID/Src/usbd_customhid.c ****   0x00,
 184:Middlewares/ST/STM32_USB_Device_Library/Class/CustomHID/Src/usbd_customhid.c ****   0x1,                            /* bInterval: Polling Interval */
 185:Middlewares/ST/STM32_USB_Device_Library/Class/CustomHID/Src/usbd_customhid.c ****   /* 34 */
 186:Middlewares/ST/STM32_USB_Device_Library/Class/CustomHID/Src/usbd_customhid.c **** 
 187:Middlewares/ST/STM32_USB_Device_Library/Class/CustomHID/Src/usbd_customhid.c ****   0x07,                                               /* bLength: Endpoint Descriptor size */
 188:Middlewares/ST/STM32_USB_Device_Library/Class/CustomHID/Src/usbd_customhid.c ****   USB_DESC_TYPE_ENDPOINT,                             /* bDescriptorType: */
 189:Middlewares/ST/STM32_USB_Device_Library/Class/CustomHID/Src/usbd_customhid.c ****   CUSTOM_HID_EPOUT_ADDR,                              /* bEndpointAddress: Endpoint Address (OUT) *
 190:Middlewares/ST/STM32_USB_Device_Library/Class/CustomHID/Src/usbd_customhid.c ****   0x03,                                               /* bmAttributes: Interrupt endpoint */
 191:Middlewares/ST/STM32_USB_Device_Library/Class/CustomHID/Src/usbd_customhid.c ****   CUSTOM_HID_EPOUT_SIZE,                              /* wMaxPacketSize: 2 Bytes max  */
 192:Middlewares/ST/STM32_USB_Device_Library/Class/CustomHID/Src/usbd_customhid.c ****   0x00,
 193:Middlewares/ST/STM32_USB_Device_Library/Class/CustomHID/Src/usbd_customhid.c ****   0x1,                            /* bInterval: Polling Interval */
 194:Middlewares/ST/STM32_USB_Device_Library/Class/CustomHID/Src/usbd_customhid.c ****   /* 41 */
 195:Middlewares/ST/STM32_USB_Device_Library/Class/CustomHID/Src/usbd_customhid.c **** };
 196:Middlewares/ST/STM32_USB_Device_Library/Class/CustomHID/Src/usbd_customhid.c **** #endif /* USE_USBD_COMPOSITE  */
 197:Middlewares/ST/STM32_USB_Device_Library/Class/CustomHID/Src/usbd_customhid.c **** 
 198:Middlewares/ST/STM32_USB_Device_Library/Class/CustomHID/Src/usbd_customhid.c **** /* USB CUSTOM_HID device Configuration Descriptor */
 199:Middlewares/ST/STM32_USB_Device_Library/Class/CustomHID/Src/usbd_customhid.c **** __ALIGN_BEGIN static uint8_t USBD_CUSTOM_HID_Desc[USB_CUSTOM_HID_DESC_SIZ] __ALIGN_END =
 200:Middlewares/ST/STM32_USB_Device_Library/Class/CustomHID/Src/usbd_customhid.c **** {
 201:Middlewares/ST/STM32_USB_Device_Library/Class/CustomHID/Src/usbd_customhid.c ****   /* 18 */
ARM GAS  C:\Users\Bence\AppData\Local\Temp\cc6pT357.s 			page 5


 202:Middlewares/ST/STM32_USB_Device_Library/Class/CustomHID/Src/usbd_customhid.c ****   0x09,                                               /* bLength: CUSTOM_HID Descriptor size */
 203:Middlewares/ST/STM32_USB_Device_Library/Class/CustomHID/Src/usbd_customhid.c ****   CUSTOM_HID_DESCRIPTOR_TYPE,                         /* bDescriptorType: CUSTOM_HID */
 204:Middlewares/ST/STM32_USB_Device_Library/Class/CustomHID/Src/usbd_customhid.c ****   0x11,                                               /* bCUSTOM_HIDUSTOM_HID: CUSTOM_HID Class Spe
 205:Middlewares/ST/STM32_USB_Device_Library/Class/CustomHID/Src/usbd_customhid.c ****   0x01,
 206:Middlewares/ST/STM32_USB_Device_Library/Class/CustomHID/Src/usbd_customhid.c ****   0x00,                                               /* bCountryCode: Hardware target country */
 207:Middlewares/ST/STM32_USB_Device_Library/Class/CustomHID/Src/usbd_customhid.c ****   0x01,                                               /* bNumDescriptors: Number of CUSTOM_HID clas
 208:Middlewares/ST/STM32_USB_Device_Library/Class/CustomHID/Src/usbd_customhid.c ****                                                          to follow */
 209:Middlewares/ST/STM32_USB_Device_Library/Class/CustomHID/Src/usbd_customhid.c ****   0x22,                                               /* bDescriptorType */
 210:Middlewares/ST/STM32_USB_Device_Library/Class/CustomHID/Src/usbd_customhid.c ****   USBD_CUSTOM_HID_REPORT_DESC_SIZE,                   /* wItemLength: Total length of Report descri
 211:Middlewares/ST/STM32_USB_Device_Library/Class/CustomHID/Src/usbd_customhid.c ****   0x00,
 212:Middlewares/ST/STM32_USB_Device_Library/Class/CustomHID/Src/usbd_customhid.c **** };
 213:Middlewares/ST/STM32_USB_Device_Library/Class/CustomHID/Src/usbd_customhid.c **** 
 214:Middlewares/ST/STM32_USB_Device_Library/Class/CustomHID/Src/usbd_customhid.c **** #ifndef USE_USBD_COMPOSITE
 215:Middlewares/ST/STM32_USB_Device_Library/Class/CustomHID/Src/usbd_customhid.c **** /* USB Standard Device Descriptor */
 216:Middlewares/ST/STM32_USB_Device_Library/Class/CustomHID/Src/usbd_customhid.c **** __ALIGN_BEGIN static uint8_t USBD_CUSTOM_HID_DeviceQualifierDesc[USB_LEN_DEV_QUALIFIER_DESC] __ALIG
 217:Middlewares/ST/STM32_USB_Device_Library/Class/CustomHID/Src/usbd_customhid.c **** {
 218:Middlewares/ST/STM32_USB_Device_Library/Class/CustomHID/Src/usbd_customhid.c ****   USB_LEN_DEV_QUALIFIER_DESC,
 219:Middlewares/ST/STM32_USB_Device_Library/Class/CustomHID/Src/usbd_customhid.c ****   USB_DESC_TYPE_DEVICE_QUALIFIER,
 220:Middlewares/ST/STM32_USB_Device_Library/Class/CustomHID/Src/usbd_customhid.c ****   0x00,
 221:Middlewares/ST/STM32_USB_Device_Library/Class/CustomHID/Src/usbd_customhid.c ****   0x02,
 222:Middlewares/ST/STM32_USB_Device_Library/Class/CustomHID/Src/usbd_customhid.c ****   0x00,
 223:Middlewares/ST/STM32_USB_Device_Library/Class/CustomHID/Src/usbd_customhid.c ****   0x00,
 224:Middlewares/ST/STM32_USB_Device_Library/Class/CustomHID/Src/usbd_customhid.c ****   0x00,
 225:Middlewares/ST/STM32_USB_Device_Library/Class/CustomHID/Src/usbd_customhid.c ****   0x40,
 226:Middlewares/ST/STM32_USB_Device_Library/Class/CustomHID/Src/usbd_customhid.c ****   0x01,
 227:Middlewares/ST/STM32_USB_Device_Library/Class/CustomHID/Src/usbd_customhid.c ****   0x00,
 228:Middlewares/ST/STM32_USB_Device_Library/Class/CustomHID/Src/usbd_customhid.c **** };
 229:Middlewares/ST/STM32_USB_Device_Library/Class/CustomHID/Src/usbd_customhid.c **** #endif /* USE_USBD_COMPOSITE  */
 230:Middlewares/ST/STM32_USB_Device_Library/Class/CustomHID/Src/usbd_customhid.c **** 
 231:Middlewares/ST/STM32_USB_Device_Library/Class/CustomHID/Src/usbd_customhid.c **** static uint8_t CUSTOMHIDInEpAdd = CUSTOM_HID_EPIN_ADDR;
 232:Middlewares/ST/STM32_USB_Device_Library/Class/CustomHID/Src/usbd_customhid.c **** static uint8_t CUSTOMHIDOutEpAdd = CUSTOM_HID_EPOUT_ADDR;
 233:Middlewares/ST/STM32_USB_Device_Library/Class/CustomHID/Src/usbd_customhid.c **** /**
 234:Middlewares/ST/STM32_USB_Device_Library/Class/CustomHID/Src/usbd_customhid.c ****   * @}
 235:Middlewares/ST/STM32_USB_Device_Library/Class/CustomHID/Src/usbd_customhid.c ****   */
 236:Middlewares/ST/STM32_USB_Device_Library/Class/CustomHID/Src/usbd_customhid.c **** 
 237:Middlewares/ST/STM32_USB_Device_Library/Class/CustomHID/Src/usbd_customhid.c **** /** @defgroup USBD_CUSTOM_HID_Private_Functions
 238:Middlewares/ST/STM32_USB_Device_Library/Class/CustomHID/Src/usbd_customhid.c ****   * @{
 239:Middlewares/ST/STM32_USB_Device_Library/Class/CustomHID/Src/usbd_customhid.c ****   */
 240:Middlewares/ST/STM32_USB_Device_Library/Class/CustomHID/Src/usbd_customhid.c **** 
 241:Middlewares/ST/STM32_USB_Device_Library/Class/CustomHID/Src/usbd_customhid.c **** /**
 242:Middlewares/ST/STM32_USB_Device_Library/Class/CustomHID/Src/usbd_customhid.c ****   * @brief  USBD_CUSTOM_HID_Init
 243:Middlewares/ST/STM32_USB_Device_Library/Class/CustomHID/Src/usbd_customhid.c ****   *         Initialize the CUSTOM_HID interface
 244:Middlewares/ST/STM32_USB_Device_Library/Class/CustomHID/Src/usbd_customhid.c ****   * @param  pdev: device instance
 245:Middlewares/ST/STM32_USB_Device_Library/Class/CustomHID/Src/usbd_customhid.c ****   * @param  cfgidx: Configuration index
 246:Middlewares/ST/STM32_USB_Device_Library/Class/CustomHID/Src/usbd_customhid.c ****   * @retval status
 247:Middlewares/ST/STM32_USB_Device_Library/Class/CustomHID/Src/usbd_customhid.c ****   */
 248:Middlewares/ST/STM32_USB_Device_Library/Class/CustomHID/Src/usbd_customhid.c **** static uint8_t USBD_CUSTOM_HID_Init(USBD_HandleTypeDef *pdev, uint8_t cfgidx)
 249:Middlewares/ST/STM32_USB_Device_Library/Class/CustomHID/Src/usbd_customhid.c **** {
 250:Middlewares/ST/STM32_USB_Device_Library/Class/CustomHID/Src/usbd_customhid.c ****   UNUSED(cfgidx);
 251:Middlewares/ST/STM32_USB_Device_Library/Class/CustomHID/Src/usbd_customhid.c ****   USBD_CUSTOM_HID_HandleTypeDef *hhid;
 252:Middlewares/ST/STM32_USB_Device_Library/Class/CustomHID/Src/usbd_customhid.c **** 
 253:Middlewares/ST/STM32_USB_Device_Library/Class/CustomHID/Src/usbd_customhid.c ****   hhid = (USBD_CUSTOM_HID_HandleTypeDef *)USBD_malloc(sizeof(USBD_CUSTOM_HID_HandleTypeDef));
 254:Middlewares/ST/STM32_USB_Device_Library/Class/CustomHID/Src/usbd_customhid.c **** 
 255:Middlewares/ST/STM32_USB_Device_Library/Class/CustomHID/Src/usbd_customhid.c ****   if (hhid == NULL)
 256:Middlewares/ST/STM32_USB_Device_Library/Class/CustomHID/Src/usbd_customhid.c ****   {
 257:Middlewares/ST/STM32_USB_Device_Library/Class/CustomHID/Src/usbd_customhid.c ****     pdev->pClassDataCmsit[pdev->classId] = NULL;
 258:Middlewares/ST/STM32_USB_Device_Library/Class/CustomHID/Src/usbd_customhid.c ****     return (uint8_t)USBD_EMEM;
ARM GAS  C:\Users\Bence\AppData\Local\Temp\cc6pT357.s 			page 6


 259:Middlewares/ST/STM32_USB_Device_Library/Class/CustomHID/Src/usbd_customhid.c ****   }
 260:Middlewares/ST/STM32_USB_Device_Library/Class/CustomHID/Src/usbd_customhid.c **** 
 261:Middlewares/ST/STM32_USB_Device_Library/Class/CustomHID/Src/usbd_customhid.c ****   pdev->pClassDataCmsit[pdev->classId] = (void *)hhid;
 262:Middlewares/ST/STM32_USB_Device_Library/Class/CustomHID/Src/usbd_customhid.c ****   pdev->pClassData = pdev->pClassDataCmsit[pdev->classId];
 263:Middlewares/ST/STM32_USB_Device_Library/Class/CustomHID/Src/usbd_customhid.c **** 
 264:Middlewares/ST/STM32_USB_Device_Library/Class/CustomHID/Src/usbd_customhid.c **** #ifdef USE_USBD_COMPOSITE
 265:Middlewares/ST/STM32_USB_Device_Library/Class/CustomHID/Src/usbd_customhid.c ****   /* Get the Endpoints addresses allocated for this class instance */
 266:Middlewares/ST/STM32_USB_Device_Library/Class/CustomHID/Src/usbd_customhid.c ****   CUSTOMHIDInEpAdd = USBD_CoreGetEPAdd(pdev, USBD_EP_IN, USBD_EP_TYPE_INTR);
 267:Middlewares/ST/STM32_USB_Device_Library/Class/CustomHID/Src/usbd_customhid.c ****   CUSTOMHIDOutEpAdd = USBD_CoreGetEPAdd(pdev, USBD_EP_OUT, USBD_EP_TYPE_INTR);
 268:Middlewares/ST/STM32_USB_Device_Library/Class/CustomHID/Src/usbd_customhid.c **** #endif /* USE_USBD_COMPOSITE */
 269:Middlewares/ST/STM32_USB_Device_Library/Class/CustomHID/Src/usbd_customhid.c **** 
 270:Middlewares/ST/STM32_USB_Device_Library/Class/CustomHID/Src/usbd_customhid.c ****   if (pdev->dev_speed == USBD_SPEED_HIGH)
 271:Middlewares/ST/STM32_USB_Device_Library/Class/CustomHID/Src/usbd_customhid.c ****   {
 272:Middlewares/ST/STM32_USB_Device_Library/Class/CustomHID/Src/usbd_customhid.c ****     pdev->ep_in[CUSTOMHIDInEpAdd & 0xFU].bInterval = CUSTOM_HID_HS_BINTERVAL;
 273:Middlewares/ST/STM32_USB_Device_Library/Class/CustomHID/Src/usbd_customhid.c ****     pdev->ep_out[CUSTOMHIDOutEpAdd & 0xFU].bInterval = CUSTOM_HID_HS_BINTERVAL;
 274:Middlewares/ST/STM32_USB_Device_Library/Class/CustomHID/Src/usbd_customhid.c ****   }
 275:Middlewares/ST/STM32_USB_Device_Library/Class/CustomHID/Src/usbd_customhid.c ****   else   /* LOW and FULL-speed endpoints */
 276:Middlewares/ST/STM32_USB_Device_Library/Class/CustomHID/Src/usbd_customhid.c ****   {
 277:Middlewares/ST/STM32_USB_Device_Library/Class/CustomHID/Src/usbd_customhid.c ****     pdev->ep_in[CUSTOMHIDInEpAdd & 0xFU].bInterval = CUSTOM_HID_FS_BINTERVAL;
 278:Middlewares/ST/STM32_USB_Device_Library/Class/CustomHID/Src/usbd_customhid.c ****     pdev->ep_out[CUSTOMHIDOutEpAdd & 0xFU].bInterval = CUSTOM_HID_FS_BINTERVAL;
 279:Middlewares/ST/STM32_USB_Device_Library/Class/CustomHID/Src/usbd_customhid.c ****   }
 280:Middlewares/ST/STM32_USB_Device_Library/Class/CustomHID/Src/usbd_customhid.c **** 
 281:Middlewares/ST/STM32_USB_Device_Library/Class/CustomHID/Src/usbd_customhid.c ****   /* Open EP IN */
 282:Middlewares/ST/STM32_USB_Device_Library/Class/CustomHID/Src/usbd_customhid.c ****   (void)USBD_LL_OpenEP(pdev, CUSTOMHIDInEpAdd, USBD_EP_TYPE_INTR,
 283:Middlewares/ST/STM32_USB_Device_Library/Class/CustomHID/Src/usbd_customhid.c ****                        CUSTOM_HID_EPIN_SIZE);
 284:Middlewares/ST/STM32_USB_Device_Library/Class/CustomHID/Src/usbd_customhid.c **** 
 285:Middlewares/ST/STM32_USB_Device_Library/Class/CustomHID/Src/usbd_customhid.c ****   pdev->ep_in[CUSTOMHIDInEpAdd & 0xFU].is_used = 1U;
 286:Middlewares/ST/STM32_USB_Device_Library/Class/CustomHID/Src/usbd_customhid.c **** 
 287:Middlewares/ST/STM32_USB_Device_Library/Class/CustomHID/Src/usbd_customhid.c ****   /* Open EP OUT */
 288:Middlewares/ST/STM32_USB_Device_Library/Class/CustomHID/Src/usbd_customhid.c ****   (void)USBD_LL_OpenEP(pdev, CUSTOMHIDOutEpAdd, USBD_EP_TYPE_INTR,
 289:Middlewares/ST/STM32_USB_Device_Library/Class/CustomHID/Src/usbd_customhid.c ****                        CUSTOM_HID_EPOUT_SIZE);
 290:Middlewares/ST/STM32_USB_Device_Library/Class/CustomHID/Src/usbd_customhid.c **** 
 291:Middlewares/ST/STM32_USB_Device_Library/Class/CustomHID/Src/usbd_customhid.c ****   pdev->ep_out[CUSTOMHIDOutEpAdd & 0xFU].is_used = 1U;
 292:Middlewares/ST/STM32_USB_Device_Library/Class/CustomHID/Src/usbd_customhid.c **** 
 293:Middlewares/ST/STM32_USB_Device_Library/Class/CustomHID/Src/usbd_customhid.c ****   hhid->state = CUSTOM_HID_IDLE;
 294:Middlewares/ST/STM32_USB_Device_Library/Class/CustomHID/Src/usbd_customhid.c **** 
 295:Middlewares/ST/STM32_USB_Device_Library/Class/CustomHID/Src/usbd_customhid.c ****   ((USBD_CUSTOM_HID_ItfTypeDef *)pdev->pUserData[pdev->classId])->Init();
 296:Middlewares/ST/STM32_USB_Device_Library/Class/CustomHID/Src/usbd_customhid.c **** 
 297:Middlewares/ST/STM32_USB_Device_Library/Class/CustomHID/Src/usbd_customhid.c ****   /* Prepare Out endpoint to receive 1st packet */
 298:Middlewares/ST/STM32_USB_Device_Library/Class/CustomHID/Src/usbd_customhid.c ****   (void)USBD_LL_PrepareReceive(pdev, CUSTOMHIDOutEpAdd, hhid->Report_buf,
 299:Middlewares/ST/STM32_USB_Device_Library/Class/CustomHID/Src/usbd_customhid.c ****                                USBD_CUSTOMHID_OUTREPORT_BUF_SIZE);
 300:Middlewares/ST/STM32_USB_Device_Library/Class/CustomHID/Src/usbd_customhid.c **** 
 301:Middlewares/ST/STM32_USB_Device_Library/Class/CustomHID/Src/usbd_customhid.c ****   return (uint8_t)USBD_OK;
 302:Middlewares/ST/STM32_USB_Device_Library/Class/CustomHID/Src/usbd_customhid.c **** }
 303:Middlewares/ST/STM32_USB_Device_Library/Class/CustomHID/Src/usbd_customhid.c **** 
 304:Middlewares/ST/STM32_USB_Device_Library/Class/CustomHID/Src/usbd_customhid.c **** /**
 305:Middlewares/ST/STM32_USB_Device_Library/Class/CustomHID/Src/usbd_customhid.c ****   * @brief  USBD_CUSTOM_HID_Init
 306:Middlewares/ST/STM32_USB_Device_Library/Class/CustomHID/Src/usbd_customhid.c ****   *         DeInitialize the CUSTOM_HID layer
 307:Middlewares/ST/STM32_USB_Device_Library/Class/CustomHID/Src/usbd_customhid.c ****   * @param  pdev: device instance
 308:Middlewares/ST/STM32_USB_Device_Library/Class/CustomHID/Src/usbd_customhid.c ****   * @param  cfgidx: Configuration index
 309:Middlewares/ST/STM32_USB_Device_Library/Class/CustomHID/Src/usbd_customhid.c ****   * @retval status
 310:Middlewares/ST/STM32_USB_Device_Library/Class/CustomHID/Src/usbd_customhid.c ****   */
 311:Middlewares/ST/STM32_USB_Device_Library/Class/CustomHID/Src/usbd_customhid.c **** static uint8_t USBD_CUSTOM_HID_DeInit(USBD_HandleTypeDef *pdev, uint8_t cfgidx)
 312:Middlewares/ST/STM32_USB_Device_Library/Class/CustomHID/Src/usbd_customhid.c **** {
 313:Middlewares/ST/STM32_USB_Device_Library/Class/CustomHID/Src/usbd_customhid.c ****   UNUSED(cfgidx);
 314:Middlewares/ST/STM32_USB_Device_Library/Class/CustomHID/Src/usbd_customhid.c **** 
 315:Middlewares/ST/STM32_USB_Device_Library/Class/CustomHID/Src/usbd_customhid.c **** #ifdef USE_USBD_COMPOSITE
ARM GAS  C:\Users\Bence\AppData\Local\Temp\cc6pT357.s 			page 7


 316:Middlewares/ST/STM32_USB_Device_Library/Class/CustomHID/Src/usbd_customhid.c ****   /* Get the Endpoints addresses allocated for this class instance */
 317:Middlewares/ST/STM32_USB_Device_Library/Class/CustomHID/Src/usbd_customhid.c ****   CUSTOMHIDInEpAdd = USBD_CoreGetEPAdd(pdev, USBD_EP_IN, USBD_EP_TYPE_INTR);
 318:Middlewares/ST/STM32_USB_Device_Library/Class/CustomHID/Src/usbd_customhid.c ****   CUSTOMHIDOutEpAdd = USBD_CoreGetEPAdd(pdev, USBD_EP_OUT, USBD_EP_TYPE_INTR);
 319:Middlewares/ST/STM32_USB_Device_Library/Class/CustomHID/Src/usbd_customhid.c **** #endif /* USE_USBD_COMPOSITE */
 320:Middlewares/ST/STM32_USB_Device_Library/Class/CustomHID/Src/usbd_customhid.c **** 
 321:Middlewares/ST/STM32_USB_Device_Library/Class/CustomHID/Src/usbd_customhid.c ****   /* Close CUSTOM_HID EP IN */
 322:Middlewares/ST/STM32_USB_Device_Library/Class/CustomHID/Src/usbd_customhid.c ****   (void)USBD_LL_CloseEP(pdev, CUSTOMHIDInEpAdd);
 323:Middlewares/ST/STM32_USB_Device_Library/Class/CustomHID/Src/usbd_customhid.c ****   pdev->ep_in[CUSTOMHIDInEpAdd & 0xFU].is_used = 0U;
 324:Middlewares/ST/STM32_USB_Device_Library/Class/CustomHID/Src/usbd_customhid.c ****   pdev->ep_in[CUSTOMHIDInEpAdd & 0xFU].bInterval = 0U;
 325:Middlewares/ST/STM32_USB_Device_Library/Class/CustomHID/Src/usbd_customhid.c **** 
 326:Middlewares/ST/STM32_USB_Device_Library/Class/CustomHID/Src/usbd_customhid.c ****   /* Close CUSTOM_HID EP OUT */
 327:Middlewares/ST/STM32_USB_Device_Library/Class/CustomHID/Src/usbd_customhid.c ****   (void)USBD_LL_CloseEP(pdev, CUSTOMHIDOutEpAdd);
 328:Middlewares/ST/STM32_USB_Device_Library/Class/CustomHID/Src/usbd_customhid.c ****   pdev->ep_out[CUSTOMHIDOutEpAdd & 0xFU].is_used = 0U;
 329:Middlewares/ST/STM32_USB_Device_Library/Class/CustomHID/Src/usbd_customhid.c ****   pdev->ep_out[CUSTOMHIDOutEpAdd & 0xFU].bInterval = 0U;
 330:Middlewares/ST/STM32_USB_Device_Library/Class/CustomHID/Src/usbd_customhid.c **** 
 331:Middlewares/ST/STM32_USB_Device_Library/Class/CustomHID/Src/usbd_customhid.c ****   /* Free allocated memory */
 332:Middlewares/ST/STM32_USB_Device_Library/Class/CustomHID/Src/usbd_customhid.c ****   if (pdev->pClassDataCmsit[pdev->classId] != NULL)
 333:Middlewares/ST/STM32_USB_Device_Library/Class/CustomHID/Src/usbd_customhid.c ****   {
 334:Middlewares/ST/STM32_USB_Device_Library/Class/CustomHID/Src/usbd_customhid.c ****     ((USBD_CUSTOM_HID_ItfTypeDef *)pdev->pUserData[pdev->classId])->DeInit();
 335:Middlewares/ST/STM32_USB_Device_Library/Class/CustomHID/Src/usbd_customhid.c ****     USBD_free(pdev->pClassDataCmsit[pdev->classId]);
 336:Middlewares/ST/STM32_USB_Device_Library/Class/CustomHID/Src/usbd_customhid.c ****     pdev->pClassDataCmsit[pdev->classId] = NULL;
 337:Middlewares/ST/STM32_USB_Device_Library/Class/CustomHID/Src/usbd_customhid.c ****     pdev->pClassData = NULL;
 338:Middlewares/ST/STM32_USB_Device_Library/Class/CustomHID/Src/usbd_customhid.c ****   }
 339:Middlewares/ST/STM32_USB_Device_Library/Class/CustomHID/Src/usbd_customhid.c **** 
 340:Middlewares/ST/STM32_USB_Device_Library/Class/CustomHID/Src/usbd_customhid.c ****   return (uint8_t)USBD_OK;
 341:Middlewares/ST/STM32_USB_Device_Library/Class/CustomHID/Src/usbd_customhid.c **** }
 342:Middlewares/ST/STM32_USB_Device_Library/Class/CustomHID/Src/usbd_customhid.c **** 
 343:Middlewares/ST/STM32_USB_Device_Library/Class/CustomHID/Src/usbd_customhid.c **** /**
 344:Middlewares/ST/STM32_USB_Device_Library/Class/CustomHID/Src/usbd_customhid.c ****   * @brief  USBD_CUSTOM_HID_Setup
 345:Middlewares/ST/STM32_USB_Device_Library/Class/CustomHID/Src/usbd_customhid.c ****   *         Handle the CUSTOM_HID specific requests
 346:Middlewares/ST/STM32_USB_Device_Library/Class/CustomHID/Src/usbd_customhid.c ****   * @param  pdev: instance
 347:Middlewares/ST/STM32_USB_Device_Library/Class/CustomHID/Src/usbd_customhid.c ****   * @param  req: usb requests
 348:Middlewares/ST/STM32_USB_Device_Library/Class/CustomHID/Src/usbd_customhid.c ****   * @retval status
 349:Middlewares/ST/STM32_USB_Device_Library/Class/CustomHID/Src/usbd_customhid.c ****   */
 350:Middlewares/ST/STM32_USB_Device_Library/Class/CustomHID/Src/usbd_customhid.c **** static uint8_t USBD_CUSTOM_HID_Setup(USBD_HandleTypeDef *pdev,
 351:Middlewares/ST/STM32_USB_Device_Library/Class/CustomHID/Src/usbd_customhid.c ****                                      USBD_SetupReqTypedef *req)
 352:Middlewares/ST/STM32_USB_Device_Library/Class/CustomHID/Src/usbd_customhid.c **** {
 353:Middlewares/ST/STM32_USB_Device_Library/Class/CustomHID/Src/usbd_customhid.c ****   USBD_CUSTOM_HID_HandleTypeDef *hhid = (USBD_CUSTOM_HID_HandleTypeDef *)pdev->pClassDataCmsit[pdev
 354:Middlewares/ST/STM32_USB_Device_Library/Class/CustomHID/Src/usbd_customhid.c ****   uint16_t len = 0U;
 355:Middlewares/ST/STM32_USB_Device_Library/Class/CustomHID/Src/usbd_customhid.c ****   uint8_t  *pbuf = NULL;
 356:Middlewares/ST/STM32_USB_Device_Library/Class/CustomHID/Src/usbd_customhid.c ****   uint16_t status_info = 0U;
 357:Middlewares/ST/STM32_USB_Device_Library/Class/CustomHID/Src/usbd_customhid.c ****   USBD_StatusTypeDef ret = USBD_OK;
 358:Middlewares/ST/STM32_USB_Device_Library/Class/CustomHID/Src/usbd_customhid.c **** 
 359:Middlewares/ST/STM32_USB_Device_Library/Class/CustomHID/Src/usbd_customhid.c ****   if (hhid == NULL)
 360:Middlewares/ST/STM32_USB_Device_Library/Class/CustomHID/Src/usbd_customhid.c ****   {
 361:Middlewares/ST/STM32_USB_Device_Library/Class/CustomHID/Src/usbd_customhid.c ****     return (uint8_t)USBD_FAIL;
 362:Middlewares/ST/STM32_USB_Device_Library/Class/CustomHID/Src/usbd_customhid.c ****   }
 363:Middlewares/ST/STM32_USB_Device_Library/Class/CustomHID/Src/usbd_customhid.c **** 
 364:Middlewares/ST/STM32_USB_Device_Library/Class/CustomHID/Src/usbd_customhid.c ****   switch (req->bmRequest & USB_REQ_TYPE_MASK)
 365:Middlewares/ST/STM32_USB_Device_Library/Class/CustomHID/Src/usbd_customhid.c ****   {
 366:Middlewares/ST/STM32_USB_Device_Library/Class/CustomHID/Src/usbd_customhid.c ****     case USB_REQ_TYPE_CLASS:
 367:Middlewares/ST/STM32_USB_Device_Library/Class/CustomHID/Src/usbd_customhid.c ****       switch (req->bRequest)
 368:Middlewares/ST/STM32_USB_Device_Library/Class/CustomHID/Src/usbd_customhid.c ****       {
 369:Middlewares/ST/STM32_USB_Device_Library/Class/CustomHID/Src/usbd_customhid.c ****         case CUSTOM_HID_REQ_SET_PROTOCOL:
 370:Middlewares/ST/STM32_USB_Device_Library/Class/CustomHID/Src/usbd_customhid.c ****           hhid->Protocol = (uint8_t)(req->wValue);
 371:Middlewares/ST/STM32_USB_Device_Library/Class/CustomHID/Src/usbd_customhid.c ****           break;
 372:Middlewares/ST/STM32_USB_Device_Library/Class/CustomHID/Src/usbd_customhid.c **** 
ARM GAS  C:\Users\Bence\AppData\Local\Temp\cc6pT357.s 			page 8


 373:Middlewares/ST/STM32_USB_Device_Library/Class/CustomHID/Src/usbd_customhid.c ****         case CUSTOM_HID_REQ_GET_PROTOCOL:
 374:Middlewares/ST/STM32_USB_Device_Library/Class/CustomHID/Src/usbd_customhid.c ****           (void)USBD_CtlSendData(pdev, (uint8_t *)&hhid->Protocol, 1U);
 375:Middlewares/ST/STM32_USB_Device_Library/Class/CustomHID/Src/usbd_customhid.c ****           break;
 376:Middlewares/ST/STM32_USB_Device_Library/Class/CustomHID/Src/usbd_customhid.c **** 
 377:Middlewares/ST/STM32_USB_Device_Library/Class/CustomHID/Src/usbd_customhid.c ****         case CUSTOM_HID_REQ_SET_IDLE:
 378:Middlewares/ST/STM32_USB_Device_Library/Class/CustomHID/Src/usbd_customhid.c ****           hhid->IdleState = (uint8_t)(req->wValue >> 8);
 379:Middlewares/ST/STM32_USB_Device_Library/Class/CustomHID/Src/usbd_customhid.c ****           break;
 380:Middlewares/ST/STM32_USB_Device_Library/Class/CustomHID/Src/usbd_customhid.c **** 
 381:Middlewares/ST/STM32_USB_Device_Library/Class/CustomHID/Src/usbd_customhid.c ****         case CUSTOM_HID_REQ_GET_IDLE:
 382:Middlewares/ST/STM32_USB_Device_Library/Class/CustomHID/Src/usbd_customhid.c ****           (void)USBD_CtlSendData(pdev, (uint8_t *)&hhid->IdleState, 1U);
 383:Middlewares/ST/STM32_USB_Device_Library/Class/CustomHID/Src/usbd_customhid.c ****           break;
 384:Middlewares/ST/STM32_USB_Device_Library/Class/CustomHID/Src/usbd_customhid.c **** 
 385:Middlewares/ST/STM32_USB_Device_Library/Class/CustomHID/Src/usbd_customhid.c ****         case CUSTOM_HID_REQ_SET_REPORT:
 386:Middlewares/ST/STM32_USB_Device_Library/Class/CustomHID/Src/usbd_customhid.c ****           hhid->IsReportAvailable = 1U;
 387:Middlewares/ST/STM32_USB_Device_Library/Class/CustomHID/Src/usbd_customhid.c ****           (void)USBD_CtlPrepareRx(pdev, hhid->Report_buf,
 388:Middlewares/ST/STM32_USB_Device_Library/Class/CustomHID/Src/usbd_customhid.c ****                                   MIN(req->wLength, USBD_CUSTOMHID_OUTREPORT_BUF_SIZE));
 389:Middlewares/ST/STM32_USB_Device_Library/Class/CustomHID/Src/usbd_customhid.c ****           break;
 390:Middlewares/ST/STM32_USB_Device_Library/Class/CustomHID/Src/usbd_customhid.c **** 
 391:Middlewares/ST/STM32_USB_Device_Library/Class/CustomHID/Src/usbd_customhid.c ****         default:
 392:Middlewares/ST/STM32_USB_Device_Library/Class/CustomHID/Src/usbd_customhid.c ****           USBD_CtlError(pdev, req);
 393:Middlewares/ST/STM32_USB_Device_Library/Class/CustomHID/Src/usbd_customhid.c ****           ret = USBD_FAIL;
 394:Middlewares/ST/STM32_USB_Device_Library/Class/CustomHID/Src/usbd_customhid.c ****           break;
 395:Middlewares/ST/STM32_USB_Device_Library/Class/CustomHID/Src/usbd_customhid.c ****       }
 396:Middlewares/ST/STM32_USB_Device_Library/Class/CustomHID/Src/usbd_customhid.c ****       break;
 397:Middlewares/ST/STM32_USB_Device_Library/Class/CustomHID/Src/usbd_customhid.c **** 
 398:Middlewares/ST/STM32_USB_Device_Library/Class/CustomHID/Src/usbd_customhid.c ****     case USB_REQ_TYPE_STANDARD:
 399:Middlewares/ST/STM32_USB_Device_Library/Class/CustomHID/Src/usbd_customhid.c ****       switch (req->bRequest)
 400:Middlewares/ST/STM32_USB_Device_Library/Class/CustomHID/Src/usbd_customhid.c ****       {
 401:Middlewares/ST/STM32_USB_Device_Library/Class/CustomHID/Src/usbd_customhid.c ****         case USB_REQ_GET_STATUS:
 402:Middlewares/ST/STM32_USB_Device_Library/Class/CustomHID/Src/usbd_customhid.c ****           if (pdev->dev_state == USBD_STATE_CONFIGURED)
 403:Middlewares/ST/STM32_USB_Device_Library/Class/CustomHID/Src/usbd_customhid.c ****           {
 404:Middlewares/ST/STM32_USB_Device_Library/Class/CustomHID/Src/usbd_customhid.c ****             (void)USBD_CtlSendData(pdev, (uint8_t *)&status_info, 2U);
 405:Middlewares/ST/STM32_USB_Device_Library/Class/CustomHID/Src/usbd_customhid.c ****           }
 406:Middlewares/ST/STM32_USB_Device_Library/Class/CustomHID/Src/usbd_customhid.c ****           else
 407:Middlewares/ST/STM32_USB_Device_Library/Class/CustomHID/Src/usbd_customhid.c ****           {
 408:Middlewares/ST/STM32_USB_Device_Library/Class/CustomHID/Src/usbd_customhid.c ****             USBD_CtlError(pdev, req);
 409:Middlewares/ST/STM32_USB_Device_Library/Class/CustomHID/Src/usbd_customhid.c ****             ret = USBD_FAIL;
 410:Middlewares/ST/STM32_USB_Device_Library/Class/CustomHID/Src/usbd_customhid.c ****           }
 411:Middlewares/ST/STM32_USB_Device_Library/Class/CustomHID/Src/usbd_customhid.c ****           break;
 412:Middlewares/ST/STM32_USB_Device_Library/Class/CustomHID/Src/usbd_customhid.c **** 
 413:Middlewares/ST/STM32_USB_Device_Library/Class/CustomHID/Src/usbd_customhid.c ****         case USB_REQ_GET_DESCRIPTOR:
 414:Middlewares/ST/STM32_USB_Device_Library/Class/CustomHID/Src/usbd_customhid.c ****           if ((req->wValue >> 8) == CUSTOM_HID_REPORT_DESC)
 415:Middlewares/ST/STM32_USB_Device_Library/Class/CustomHID/Src/usbd_customhid.c ****           {
 416:Middlewares/ST/STM32_USB_Device_Library/Class/CustomHID/Src/usbd_customhid.c ****             len = MIN(USBD_CUSTOM_HID_REPORT_DESC_SIZE, req->wLength);
 417:Middlewares/ST/STM32_USB_Device_Library/Class/CustomHID/Src/usbd_customhid.c ****             pbuf = ((USBD_CUSTOM_HID_ItfTypeDef *)pdev->pUserData[pdev->classId])->pReport;
 418:Middlewares/ST/STM32_USB_Device_Library/Class/CustomHID/Src/usbd_customhid.c ****           }
 419:Middlewares/ST/STM32_USB_Device_Library/Class/CustomHID/Src/usbd_customhid.c ****           else
 420:Middlewares/ST/STM32_USB_Device_Library/Class/CustomHID/Src/usbd_customhid.c ****           {
 421:Middlewares/ST/STM32_USB_Device_Library/Class/CustomHID/Src/usbd_customhid.c ****             if ((req->wValue >> 8) == CUSTOM_HID_DESCRIPTOR_TYPE)
 422:Middlewares/ST/STM32_USB_Device_Library/Class/CustomHID/Src/usbd_customhid.c ****             {
 423:Middlewares/ST/STM32_USB_Device_Library/Class/CustomHID/Src/usbd_customhid.c ****               pbuf = USBD_CUSTOM_HID_Desc;
 424:Middlewares/ST/STM32_USB_Device_Library/Class/CustomHID/Src/usbd_customhid.c ****               len = MIN(USB_CUSTOM_HID_DESC_SIZ, req->wLength);
 425:Middlewares/ST/STM32_USB_Device_Library/Class/CustomHID/Src/usbd_customhid.c ****             }
 426:Middlewares/ST/STM32_USB_Device_Library/Class/CustomHID/Src/usbd_customhid.c ****           }
 427:Middlewares/ST/STM32_USB_Device_Library/Class/CustomHID/Src/usbd_customhid.c **** 
 428:Middlewares/ST/STM32_USB_Device_Library/Class/CustomHID/Src/usbd_customhid.c ****           (void)USBD_CtlSendData(pdev, pbuf, len);
 429:Middlewares/ST/STM32_USB_Device_Library/Class/CustomHID/Src/usbd_customhid.c ****           break;
ARM GAS  C:\Users\Bence\AppData\Local\Temp\cc6pT357.s 			page 9


 430:Middlewares/ST/STM32_USB_Device_Library/Class/CustomHID/Src/usbd_customhid.c **** 
 431:Middlewares/ST/STM32_USB_Device_Library/Class/CustomHID/Src/usbd_customhid.c ****         case USB_REQ_GET_INTERFACE:
 432:Middlewares/ST/STM32_USB_Device_Library/Class/CustomHID/Src/usbd_customhid.c ****           if (pdev->dev_state == USBD_STATE_CONFIGURED)
 433:Middlewares/ST/STM32_USB_Device_Library/Class/CustomHID/Src/usbd_customhid.c ****           {
 434:Middlewares/ST/STM32_USB_Device_Library/Class/CustomHID/Src/usbd_customhid.c ****             (void)USBD_CtlSendData(pdev, (uint8_t *)&hhid->AltSetting, 1U);
 435:Middlewares/ST/STM32_USB_Device_Library/Class/CustomHID/Src/usbd_customhid.c ****           }
 436:Middlewares/ST/STM32_USB_Device_Library/Class/CustomHID/Src/usbd_customhid.c ****           else
 437:Middlewares/ST/STM32_USB_Device_Library/Class/CustomHID/Src/usbd_customhid.c ****           {
 438:Middlewares/ST/STM32_USB_Device_Library/Class/CustomHID/Src/usbd_customhid.c ****             USBD_CtlError(pdev, req);
 439:Middlewares/ST/STM32_USB_Device_Library/Class/CustomHID/Src/usbd_customhid.c ****             ret = USBD_FAIL;
 440:Middlewares/ST/STM32_USB_Device_Library/Class/CustomHID/Src/usbd_customhid.c ****           }
 441:Middlewares/ST/STM32_USB_Device_Library/Class/CustomHID/Src/usbd_customhid.c ****           break;
 442:Middlewares/ST/STM32_USB_Device_Library/Class/CustomHID/Src/usbd_customhid.c **** 
 443:Middlewares/ST/STM32_USB_Device_Library/Class/CustomHID/Src/usbd_customhid.c ****         case USB_REQ_SET_INTERFACE:
 444:Middlewares/ST/STM32_USB_Device_Library/Class/CustomHID/Src/usbd_customhid.c ****           if (pdev->dev_state == USBD_STATE_CONFIGURED)
 445:Middlewares/ST/STM32_USB_Device_Library/Class/CustomHID/Src/usbd_customhid.c ****           {
 446:Middlewares/ST/STM32_USB_Device_Library/Class/CustomHID/Src/usbd_customhid.c ****             hhid->AltSetting = (uint8_t)(req->wValue);
 447:Middlewares/ST/STM32_USB_Device_Library/Class/CustomHID/Src/usbd_customhid.c ****           }
 448:Middlewares/ST/STM32_USB_Device_Library/Class/CustomHID/Src/usbd_customhid.c ****           else
 449:Middlewares/ST/STM32_USB_Device_Library/Class/CustomHID/Src/usbd_customhid.c ****           {
 450:Middlewares/ST/STM32_USB_Device_Library/Class/CustomHID/Src/usbd_customhid.c ****             USBD_CtlError(pdev, req);
 451:Middlewares/ST/STM32_USB_Device_Library/Class/CustomHID/Src/usbd_customhid.c ****             ret = USBD_FAIL;
 452:Middlewares/ST/STM32_USB_Device_Library/Class/CustomHID/Src/usbd_customhid.c ****           }
 453:Middlewares/ST/STM32_USB_Device_Library/Class/CustomHID/Src/usbd_customhid.c ****           break;
 454:Middlewares/ST/STM32_USB_Device_Library/Class/CustomHID/Src/usbd_customhid.c **** 
 455:Middlewares/ST/STM32_USB_Device_Library/Class/CustomHID/Src/usbd_customhid.c ****         case USB_REQ_CLEAR_FEATURE:
 456:Middlewares/ST/STM32_USB_Device_Library/Class/CustomHID/Src/usbd_customhid.c ****           break;
 457:Middlewares/ST/STM32_USB_Device_Library/Class/CustomHID/Src/usbd_customhid.c **** 
 458:Middlewares/ST/STM32_USB_Device_Library/Class/CustomHID/Src/usbd_customhid.c ****         default:
 459:Middlewares/ST/STM32_USB_Device_Library/Class/CustomHID/Src/usbd_customhid.c ****           USBD_CtlError(pdev, req);
 460:Middlewares/ST/STM32_USB_Device_Library/Class/CustomHID/Src/usbd_customhid.c ****           ret = USBD_FAIL;
 461:Middlewares/ST/STM32_USB_Device_Library/Class/CustomHID/Src/usbd_customhid.c ****           break;
 462:Middlewares/ST/STM32_USB_Device_Library/Class/CustomHID/Src/usbd_customhid.c ****       }
 463:Middlewares/ST/STM32_USB_Device_Library/Class/CustomHID/Src/usbd_customhid.c ****       break;
 464:Middlewares/ST/STM32_USB_Device_Library/Class/CustomHID/Src/usbd_customhid.c **** 
 465:Middlewares/ST/STM32_USB_Device_Library/Class/CustomHID/Src/usbd_customhid.c ****     default:
 466:Middlewares/ST/STM32_USB_Device_Library/Class/CustomHID/Src/usbd_customhid.c ****       USBD_CtlError(pdev, req);
 467:Middlewares/ST/STM32_USB_Device_Library/Class/CustomHID/Src/usbd_customhid.c ****       ret = USBD_FAIL;
 468:Middlewares/ST/STM32_USB_Device_Library/Class/CustomHID/Src/usbd_customhid.c ****       break;
 469:Middlewares/ST/STM32_USB_Device_Library/Class/CustomHID/Src/usbd_customhid.c ****   }
 470:Middlewares/ST/STM32_USB_Device_Library/Class/CustomHID/Src/usbd_customhid.c ****   return (uint8_t)ret;
 471:Middlewares/ST/STM32_USB_Device_Library/Class/CustomHID/Src/usbd_customhid.c **** }
 472:Middlewares/ST/STM32_USB_Device_Library/Class/CustomHID/Src/usbd_customhid.c **** 
 473:Middlewares/ST/STM32_USB_Device_Library/Class/CustomHID/Src/usbd_customhid.c **** /**
 474:Middlewares/ST/STM32_USB_Device_Library/Class/CustomHID/Src/usbd_customhid.c ****   * @brief  USBD_CUSTOM_HID_SendReport
 475:Middlewares/ST/STM32_USB_Device_Library/Class/CustomHID/Src/usbd_customhid.c ****   *         Send CUSTOM_HID Report
 476:Middlewares/ST/STM32_USB_Device_Library/Class/CustomHID/Src/usbd_customhid.c ****   * @param  pdev: device instance
 477:Middlewares/ST/STM32_USB_Device_Library/Class/CustomHID/Src/usbd_customhid.c ****   * @param  buff: pointer to report
 478:Middlewares/ST/STM32_USB_Device_Library/Class/CustomHID/Src/usbd_customhid.c ****   * @retval status
 479:Middlewares/ST/STM32_USB_Device_Library/Class/CustomHID/Src/usbd_customhid.c ****   */
 480:Middlewares/ST/STM32_USB_Device_Library/Class/CustomHID/Src/usbd_customhid.c **** uint8_t USBD_CUSTOM_HID_SendReport(USBD_HandleTypeDef *pdev,
 481:Middlewares/ST/STM32_USB_Device_Library/Class/CustomHID/Src/usbd_customhid.c ****                                    uint8_t *report, uint16_t len)
 482:Middlewares/ST/STM32_USB_Device_Library/Class/CustomHID/Src/usbd_customhid.c **** {
 483:Middlewares/ST/STM32_USB_Device_Library/Class/CustomHID/Src/usbd_customhid.c ****   USBD_CUSTOM_HID_HandleTypeDef *hhid;
 484:Middlewares/ST/STM32_USB_Device_Library/Class/CustomHID/Src/usbd_customhid.c **** 
 485:Middlewares/ST/STM32_USB_Device_Library/Class/CustomHID/Src/usbd_customhid.c ****   if (pdev->pClassDataCmsit[pdev->classId] == NULL)
 486:Middlewares/ST/STM32_USB_Device_Library/Class/CustomHID/Src/usbd_customhid.c ****   {
ARM GAS  C:\Users\Bence\AppData\Local\Temp\cc6pT357.s 			page 10


 487:Middlewares/ST/STM32_USB_Device_Library/Class/CustomHID/Src/usbd_customhid.c ****     return (uint8_t)USBD_FAIL;
 488:Middlewares/ST/STM32_USB_Device_Library/Class/CustomHID/Src/usbd_customhid.c ****   }
 489:Middlewares/ST/STM32_USB_Device_Library/Class/CustomHID/Src/usbd_customhid.c **** 
 490:Middlewares/ST/STM32_USB_Device_Library/Class/CustomHID/Src/usbd_customhid.c **** #ifdef USE_USBD_COMPOSITE
 491:Middlewares/ST/STM32_USB_Device_Library/Class/CustomHID/Src/usbd_customhid.c ****   /* Get Endpoint IN address allocated for this class instance */
 492:Middlewares/ST/STM32_USB_Device_Library/Class/CustomHID/Src/usbd_customhid.c ****   CUSTOMHIDInEpAdd = USBD_CoreGetEPAdd(pdev, USBD_EP_IN, USBD_EP_TYPE_INTR);
 493:Middlewares/ST/STM32_USB_Device_Library/Class/CustomHID/Src/usbd_customhid.c **** #endif /* USE_USBD_COMPOSITE */
 494:Middlewares/ST/STM32_USB_Device_Library/Class/CustomHID/Src/usbd_customhid.c **** 
 495:Middlewares/ST/STM32_USB_Device_Library/Class/CustomHID/Src/usbd_customhid.c ****   hhid = (USBD_CUSTOM_HID_HandleTypeDef *)pdev->pClassDataCmsit[pdev->classId];
 496:Middlewares/ST/STM32_USB_Device_Library/Class/CustomHID/Src/usbd_customhid.c **** 
 497:Middlewares/ST/STM32_USB_Device_Library/Class/CustomHID/Src/usbd_customhid.c ****   if (pdev->dev_state == USBD_STATE_CONFIGURED)
 498:Middlewares/ST/STM32_USB_Device_Library/Class/CustomHID/Src/usbd_customhid.c ****   {
 499:Middlewares/ST/STM32_USB_Device_Library/Class/CustomHID/Src/usbd_customhid.c ****     if (hhid->state == CUSTOM_HID_IDLE)
 500:Middlewares/ST/STM32_USB_Device_Library/Class/CustomHID/Src/usbd_customhid.c ****     {
 501:Middlewares/ST/STM32_USB_Device_Library/Class/CustomHID/Src/usbd_customhid.c ****       hhid->state = CUSTOM_HID_BUSY;
 502:Middlewares/ST/STM32_USB_Device_Library/Class/CustomHID/Src/usbd_customhid.c ****       (void)USBD_LL_Transmit(pdev, CUSTOMHIDInEpAdd, report, len);
 503:Middlewares/ST/STM32_USB_Device_Library/Class/CustomHID/Src/usbd_customhid.c ****     }
 504:Middlewares/ST/STM32_USB_Device_Library/Class/CustomHID/Src/usbd_customhid.c ****     else
 505:Middlewares/ST/STM32_USB_Device_Library/Class/CustomHID/Src/usbd_customhid.c ****     {
 506:Middlewares/ST/STM32_USB_Device_Library/Class/CustomHID/Src/usbd_customhid.c ****       return (uint8_t)USBD_BUSY;
 507:Middlewares/ST/STM32_USB_Device_Library/Class/CustomHID/Src/usbd_customhid.c ****     }
 508:Middlewares/ST/STM32_USB_Device_Library/Class/CustomHID/Src/usbd_customhid.c ****   }
 509:Middlewares/ST/STM32_USB_Device_Library/Class/CustomHID/Src/usbd_customhid.c ****   return (uint8_t)USBD_OK;
 510:Middlewares/ST/STM32_USB_Device_Library/Class/CustomHID/Src/usbd_customhid.c **** }
 511:Middlewares/ST/STM32_USB_Device_Library/Class/CustomHID/Src/usbd_customhid.c **** #ifndef USE_USBD_COMPOSITE
 512:Middlewares/ST/STM32_USB_Device_Library/Class/CustomHID/Src/usbd_customhid.c **** /**
 513:Middlewares/ST/STM32_USB_Device_Library/Class/CustomHID/Src/usbd_customhid.c ****   * @brief  USBD_CUSTOM_HID_GetFSCfgDesc
 514:Middlewares/ST/STM32_USB_Device_Library/Class/CustomHID/Src/usbd_customhid.c ****   *         return FS configuration descriptor
 515:Middlewares/ST/STM32_USB_Device_Library/Class/CustomHID/Src/usbd_customhid.c ****   * @param  speed : current device speed
 516:Middlewares/ST/STM32_USB_Device_Library/Class/CustomHID/Src/usbd_customhid.c ****   * @param  length : pointer data length
 517:Middlewares/ST/STM32_USB_Device_Library/Class/CustomHID/Src/usbd_customhid.c ****   * @retval pointer to descriptor buffer
 518:Middlewares/ST/STM32_USB_Device_Library/Class/CustomHID/Src/usbd_customhid.c ****   */
 519:Middlewares/ST/STM32_USB_Device_Library/Class/CustomHID/Src/usbd_customhid.c **** static uint8_t *USBD_CUSTOM_HID_GetFSCfgDesc(uint16_t *length)
 520:Middlewares/ST/STM32_USB_Device_Library/Class/CustomHID/Src/usbd_customhid.c **** {
 521:Middlewares/ST/STM32_USB_Device_Library/Class/CustomHID/Src/usbd_customhid.c ****   USBD_EpDescTypeDef *pEpInDesc = USBD_GetEpDesc(USBD_CUSTOM_HID_CfgDesc, CUSTOM_HID_EPIN_ADDR);
 522:Middlewares/ST/STM32_USB_Device_Library/Class/CustomHID/Src/usbd_customhid.c ****   USBD_EpDescTypeDef *pEpOutDesc = USBD_GetEpDesc(USBD_CUSTOM_HID_CfgDesc, CUSTOM_HID_EPOUT_ADDR);
 523:Middlewares/ST/STM32_USB_Device_Library/Class/CustomHID/Src/usbd_customhid.c **** 
 524:Middlewares/ST/STM32_USB_Device_Library/Class/CustomHID/Src/usbd_customhid.c ****   if (pEpInDesc != NULL)
 525:Middlewares/ST/STM32_USB_Device_Library/Class/CustomHID/Src/usbd_customhid.c ****   {
 526:Middlewares/ST/STM32_USB_Device_Library/Class/CustomHID/Src/usbd_customhid.c ****     pEpInDesc->wMaxPacketSize = CUSTOM_HID_EPIN_SIZE;
 527:Middlewares/ST/STM32_USB_Device_Library/Class/CustomHID/Src/usbd_customhid.c ****     pEpInDesc->bInterval = CUSTOM_HID_FS_BINTERVAL;
 528:Middlewares/ST/STM32_USB_Device_Library/Class/CustomHID/Src/usbd_customhid.c ****   }
 529:Middlewares/ST/STM32_USB_Device_Library/Class/CustomHID/Src/usbd_customhid.c **** 
 530:Middlewares/ST/STM32_USB_Device_Library/Class/CustomHID/Src/usbd_customhid.c ****   if (pEpOutDesc != NULL)
 531:Middlewares/ST/STM32_USB_Device_Library/Class/CustomHID/Src/usbd_customhid.c ****   {
 532:Middlewares/ST/STM32_USB_Device_Library/Class/CustomHID/Src/usbd_customhid.c ****     pEpOutDesc->wMaxPacketSize = CUSTOM_HID_EPOUT_SIZE;
 533:Middlewares/ST/STM32_USB_Device_Library/Class/CustomHID/Src/usbd_customhid.c ****     pEpOutDesc->bInterval = CUSTOM_HID_FS_BINTERVAL;
 534:Middlewares/ST/STM32_USB_Device_Library/Class/CustomHID/Src/usbd_customhid.c ****   }
 535:Middlewares/ST/STM32_USB_Device_Library/Class/CustomHID/Src/usbd_customhid.c **** 
 536:Middlewares/ST/STM32_USB_Device_Library/Class/CustomHID/Src/usbd_customhid.c ****   *length = (uint16_t)sizeof(USBD_CUSTOM_HID_CfgDesc);
 537:Middlewares/ST/STM32_USB_Device_Library/Class/CustomHID/Src/usbd_customhid.c ****   return USBD_CUSTOM_HID_CfgDesc;
 538:Middlewares/ST/STM32_USB_Device_Library/Class/CustomHID/Src/usbd_customhid.c **** }
 539:Middlewares/ST/STM32_USB_Device_Library/Class/CustomHID/Src/usbd_customhid.c **** 
 540:Middlewares/ST/STM32_USB_Device_Library/Class/CustomHID/Src/usbd_customhid.c **** /**
 541:Middlewares/ST/STM32_USB_Device_Library/Class/CustomHID/Src/usbd_customhid.c ****   * @brief  USBD_CUSTOM_HID_GetHSCfgDesc
 542:Middlewares/ST/STM32_USB_Device_Library/Class/CustomHID/Src/usbd_customhid.c ****   *         return HS configuration descriptor
 543:Middlewares/ST/STM32_USB_Device_Library/Class/CustomHID/Src/usbd_customhid.c ****   * @param  speed : current device speed
ARM GAS  C:\Users\Bence\AppData\Local\Temp\cc6pT357.s 			page 11


 544:Middlewares/ST/STM32_USB_Device_Library/Class/CustomHID/Src/usbd_customhid.c ****   * @param  length : pointer data length
 545:Middlewares/ST/STM32_USB_Device_Library/Class/CustomHID/Src/usbd_customhid.c ****   * @retval pointer to descriptor buffer
 546:Middlewares/ST/STM32_USB_Device_Library/Class/CustomHID/Src/usbd_customhid.c ****   */
 547:Middlewares/ST/STM32_USB_Device_Library/Class/CustomHID/Src/usbd_customhid.c **** static uint8_t *USBD_CUSTOM_HID_GetHSCfgDesc(uint16_t *length)
 548:Middlewares/ST/STM32_USB_Device_Library/Class/CustomHID/Src/usbd_customhid.c **** {
 549:Middlewares/ST/STM32_USB_Device_Library/Class/CustomHID/Src/usbd_customhid.c ****   USBD_EpDescTypeDef *pEpInDesc = USBD_GetEpDesc(USBD_CUSTOM_HID_CfgDesc, CUSTOM_HID_EPIN_ADDR);
 550:Middlewares/ST/STM32_USB_Device_Library/Class/CustomHID/Src/usbd_customhid.c ****   USBD_EpDescTypeDef *pEpOutDesc = USBD_GetEpDesc(USBD_CUSTOM_HID_CfgDesc, CUSTOM_HID_EPOUT_ADDR);
 551:Middlewares/ST/STM32_USB_Device_Library/Class/CustomHID/Src/usbd_customhid.c **** 
 552:Middlewares/ST/STM32_USB_Device_Library/Class/CustomHID/Src/usbd_customhid.c ****   if (pEpInDesc != NULL)
 553:Middlewares/ST/STM32_USB_Device_Library/Class/CustomHID/Src/usbd_customhid.c ****   {
 554:Middlewares/ST/STM32_USB_Device_Library/Class/CustomHID/Src/usbd_customhid.c ****     pEpInDesc->wMaxPacketSize = CUSTOM_HID_EPIN_SIZE;
 555:Middlewares/ST/STM32_USB_Device_Library/Class/CustomHID/Src/usbd_customhid.c ****     pEpInDesc->bInterval = CUSTOM_HID_HS_BINTERVAL;
 556:Middlewares/ST/STM32_USB_Device_Library/Class/CustomHID/Src/usbd_customhid.c ****   }
 557:Middlewares/ST/STM32_USB_Device_Library/Class/CustomHID/Src/usbd_customhid.c **** 
 558:Middlewares/ST/STM32_USB_Device_Library/Class/CustomHID/Src/usbd_customhid.c ****   if (pEpOutDesc != NULL)
 559:Middlewares/ST/STM32_USB_Device_Library/Class/CustomHID/Src/usbd_customhid.c ****   {
 560:Middlewares/ST/STM32_USB_Device_Library/Class/CustomHID/Src/usbd_customhid.c ****     pEpOutDesc->wMaxPacketSize = CUSTOM_HID_EPOUT_SIZE;
 561:Middlewares/ST/STM32_USB_Device_Library/Class/CustomHID/Src/usbd_customhid.c ****     pEpOutDesc->bInterval = CUSTOM_HID_HS_BINTERVAL;
 562:Middlewares/ST/STM32_USB_Device_Library/Class/CustomHID/Src/usbd_customhid.c ****   }
 563:Middlewares/ST/STM32_USB_Device_Library/Class/CustomHID/Src/usbd_customhid.c **** 
 564:Middlewares/ST/STM32_USB_Device_Library/Class/CustomHID/Src/usbd_customhid.c ****   *length = (uint16_t)sizeof(USBD_CUSTOM_HID_CfgDesc);
 565:Middlewares/ST/STM32_USB_Device_Library/Class/CustomHID/Src/usbd_customhid.c ****   return USBD_CUSTOM_HID_CfgDesc;
 566:Middlewares/ST/STM32_USB_Device_Library/Class/CustomHID/Src/usbd_customhid.c **** }
 567:Middlewares/ST/STM32_USB_Device_Library/Class/CustomHID/Src/usbd_customhid.c **** 
 568:Middlewares/ST/STM32_USB_Device_Library/Class/CustomHID/Src/usbd_customhid.c **** /**
 569:Middlewares/ST/STM32_USB_Device_Library/Class/CustomHID/Src/usbd_customhid.c ****   * @brief  USBD_CUSTOM_HID_GetOtherSpeedCfgDesc
 570:Middlewares/ST/STM32_USB_Device_Library/Class/CustomHID/Src/usbd_customhid.c ****   *         return other speed configuration descriptor
 571:Middlewares/ST/STM32_USB_Device_Library/Class/CustomHID/Src/usbd_customhid.c ****   * @param  speed : current device speed
 572:Middlewares/ST/STM32_USB_Device_Library/Class/CustomHID/Src/usbd_customhid.c ****   * @param  length : pointer data length
 573:Middlewares/ST/STM32_USB_Device_Library/Class/CustomHID/Src/usbd_customhid.c ****   * @retval pointer to descriptor buffer
 574:Middlewares/ST/STM32_USB_Device_Library/Class/CustomHID/Src/usbd_customhid.c ****   */
 575:Middlewares/ST/STM32_USB_Device_Library/Class/CustomHID/Src/usbd_customhid.c **** static uint8_t *USBD_CUSTOM_HID_GetOtherSpeedCfgDesc(uint16_t *length)
 576:Middlewares/ST/STM32_USB_Device_Library/Class/CustomHID/Src/usbd_customhid.c **** {
 577:Middlewares/ST/STM32_USB_Device_Library/Class/CustomHID/Src/usbd_customhid.c ****   USBD_EpDescTypeDef *pEpInDesc = USBD_GetEpDesc(USBD_CUSTOM_HID_CfgDesc, CUSTOM_HID_EPIN_ADDR);
 578:Middlewares/ST/STM32_USB_Device_Library/Class/CustomHID/Src/usbd_customhid.c ****   USBD_EpDescTypeDef *pEpOutDesc = USBD_GetEpDesc(USBD_CUSTOM_HID_CfgDesc, CUSTOM_HID_EPOUT_ADDR);
 579:Middlewares/ST/STM32_USB_Device_Library/Class/CustomHID/Src/usbd_customhid.c **** 
 580:Middlewares/ST/STM32_USB_Device_Library/Class/CustomHID/Src/usbd_customhid.c ****   if (pEpInDesc != NULL)
 581:Middlewares/ST/STM32_USB_Device_Library/Class/CustomHID/Src/usbd_customhid.c ****   {
 582:Middlewares/ST/STM32_USB_Device_Library/Class/CustomHID/Src/usbd_customhid.c ****     pEpInDesc->wMaxPacketSize = CUSTOM_HID_EPIN_SIZE;
 583:Middlewares/ST/STM32_USB_Device_Library/Class/CustomHID/Src/usbd_customhid.c ****     pEpInDesc->bInterval = CUSTOM_HID_FS_BINTERVAL;
 584:Middlewares/ST/STM32_USB_Device_Library/Class/CustomHID/Src/usbd_customhid.c ****   }
 585:Middlewares/ST/STM32_USB_Device_Library/Class/CustomHID/Src/usbd_customhid.c **** 
 586:Middlewares/ST/STM32_USB_Device_Library/Class/CustomHID/Src/usbd_customhid.c ****   if (pEpOutDesc != NULL)
 587:Middlewares/ST/STM32_USB_Device_Library/Class/CustomHID/Src/usbd_customhid.c ****   {
 588:Middlewares/ST/STM32_USB_Device_Library/Class/CustomHID/Src/usbd_customhid.c ****     pEpOutDesc->wMaxPacketSize = CUSTOM_HID_EPOUT_SIZE;
 589:Middlewares/ST/STM32_USB_Device_Library/Class/CustomHID/Src/usbd_customhid.c ****     pEpOutDesc->bInterval = CUSTOM_HID_FS_BINTERVAL;
 590:Middlewares/ST/STM32_USB_Device_Library/Class/CustomHID/Src/usbd_customhid.c ****   }
 591:Middlewares/ST/STM32_USB_Device_Library/Class/CustomHID/Src/usbd_customhid.c **** 
 592:Middlewares/ST/STM32_USB_Device_Library/Class/CustomHID/Src/usbd_customhid.c ****   *length = (uint16_t)sizeof(USBD_CUSTOM_HID_CfgDesc);
 593:Middlewares/ST/STM32_USB_Device_Library/Class/CustomHID/Src/usbd_customhid.c ****   return USBD_CUSTOM_HID_CfgDesc;
 594:Middlewares/ST/STM32_USB_Device_Library/Class/CustomHID/Src/usbd_customhid.c **** }
 595:Middlewares/ST/STM32_USB_Device_Library/Class/CustomHID/Src/usbd_customhid.c **** #endif /* USE_USBD_COMPOSITE  */
 596:Middlewares/ST/STM32_USB_Device_Library/Class/CustomHID/Src/usbd_customhid.c **** 
 597:Middlewares/ST/STM32_USB_Device_Library/Class/CustomHID/Src/usbd_customhid.c **** /**
 598:Middlewares/ST/STM32_USB_Device_Library/Class/CustomHID/Src/usbd_customhid.c ****   * @brief  USBD_CUSTOM_HID_DataIn
 599:Middlewares/ST/STM32_USB_Device_Library/Class/CustomHID/Src/usbd_customhid.c ****   *         handle data IN Stage
 600:Middlewares/ST/STM32_USB_Device_Library/Class/CustomHID/Src/usbd_customhid.c ****   * @param  pdev: device instance
ARM GAS  C:\Users\Bence\AppData\Local\Temp\cc6pT357.s 			page 12


 601:Middlewares/ST/STM32_USB_Device_Library/Class/CustomHID/Src/usbd_customhid.c ****   * @param  epnum: endpoint index
 602:Middlewares/ST/STM32_USB_Device_Library/Class/CustomHID/Src/usbd_customhid.c ****   * @retval status
 603:Middlewares/ST/STM32_USB_Device_Library/Class/CustomHID/Src/usbd_customhid.c ****   */
 604:Middlewares/ST/STM32_USB_Device_Library/Class/CustomHID/Src/usbd_customhid.c **** static uint8_t USBD_CUSTOM_HID_DataIn(USBD_HandleTypeDef *pdev, uint8_t epnum)
 605:Middlewares/ST/STM32_USB_Device_Library/Class/CustomHID/Src/usbd_customhid.c **** {
  29              		.loc 1 605 1 view -0
  30              		.cfi_startproc
  31              		@ args = 0, pretend = 0, frame = 0
  32              		@ frame_needed = 0, uses_anonymous_args = 0
  33              		@ link register save eliminated.
 606:Middlewares/ST/STM32_USB_Device_Library/Class/CustomHID/Src/usbd_customhid.c ****   UNUSED(epnum);
  34              		.loc 1 606 3 view .LVU1
 607:Middlewares/ST/STM32_USB_Device_Library/Class/CustomHID/Src/usbd_customhid.c **** 
 608:Middlewares/ST/STM32_USB_Device_Library/Class/CustomHID/Src/usbd_customhid.c ****   /* Ensure that the FIFO is empty before a new transfer, this condition could
 609:Middlewares/ST/STM32_USB_Device_Library/Class/CustomHID/Src/usbd_customhid.c ****   be caused by  a new transfer before the end of the previous transfer */
 610:Middlewares/ST/STM32_USB_Device_Library/Class/CustomHID/Src/usbd_customhid.c ****   ((USBD_CUSTOM_HID_HandleTypeDef *)pdev->pClassDataCmsit[pdev->classId])->state = CUSTOM_HID_IDLE;
  35              		.loc 1 610 3 view .LVU2
  36              		.loc 1 610 63 is_stmt 0 view .LVU3
  37 0000 D0F8D432 		ldr	r3, [r0, #724]
  38              		.loc 1 610 58 view .LVU4
  39 0004 B033     		adds	r3, r3, #176
  40 0006 50F82330 		ldr	r3, [r0, r3, lsl #2]
  41              		.loc 1 610 82 view .LVU5
  42 000a 0020     		movs	r0, #0
  43              	.LVL1:
  44              		.loc 1 610 82 view .LVU6
  45 000c 83F85000 		strb	r0, [r3, #80]
 611:Middlewares/ST/STM32_USB_Device_Library/Class/CustomHID/Src/usbd_customhid.c **** 
 612:Middlewares/ST/STM32_USB_Device_Library/Class/CustomHID/Src/usbd_customhid.c ****   return (uint8_t)USBD_OK;
  46              		.loc 1 612 3 is_stmt 1 view .LVU7
 613:Middlewares/ST/STM32_USB_Device_Library/Class/CustomHID/Src/usbd_customhid.c **** }
  47              		.loc 1 613 1 is_stmt 0 view .LVU8
  48 0010 7047     		bx	lr
  49              		.cfi_endproc
  50              	.LFE141:
  52              		.section	.text.USBD_CUSTOM_HID_DataOut,"ax",%progbits
  53              		.align	1
  54              		.syntax unified
  55              		.thumb
  56              		.thumb_func
  58              	USBD_CUSTOM_HID_DataOut:
  59              	.LVL2:
  60              	.LFB142:
 614:Middlewares/ST/STM32_USB_Device_Library/Class/CustomHID/Src/usbd_customhid.c **** 
 615:Middlewares/ST/STM32_USB_Device_Library/Class/CustomHID/Src/usbd_customhid.c **** /**
 616:Middlewares/ST/STM32_USB_Device_Library/Class/CustomHID/Src/usbd_customhid.c ****   * @brief  USBD_CUSTOM_HID_DataOut
 617:Middlewares/ST/STM32_USB_Device_Library/Class/CustomHID/Src/usbd_customhid.c ****   *         handle data OUT Stage
 618:Middlewares/ST/STM32_USB_Device_Library/Class/CustomHID/Src/usbd_customhid.c ****   * @param  pdev: device instance
 619:Middlewares/ST/STM32_USB_Device_Library/Class/CustomHID/Src/usbd_customhid.c ****   * @param  epnum: endpoint index
 620:Middlewares/ST/STM32_USB_Device_Library/Class/CustomHID/Src/usbd_customhid.c ****   * @retval status
 621:Middlewares/ST/STM32_USB_Device_Library/Class/CustomHID/Src/usbd_customhid.c ****   */
 622:Middlewares/ST/STM32_USB_Device_Library/Class/CustomHID/Src/usbd_customhid.c **** static uint8_t USBD_CUSTOM_HID_DataOut(USBD_HandleTypeDef *pdev, uint8_t epnum)
 623:Middlewares/ST/STM32_USB_Device_Library/Class/CustomHID/Src/usbd_customhid.c **** {
  61              		.loc 1 623 1 is_stmt 1 view -0
  62              		.cfi_startproc
  63              		@ args = 0, pretend = 0, frame = 0
  64              		@ frame_needed = 0, uses_anonymous_args = 0
ARM GAS  C:\Users\Bence\AppData\Local\Temp\cc6pT357.s 			page 13


  65              		.loc 1 623 1 is_stmt 0 view .LVU10
  66 0000 08B5     		push	{r3, lr}
  67              	.LCFI0:
  68              		.cfi_def_cfa_offset 8
  69              		.cfi_offset 3, -8
  70              		.cfi_offset 14, -4
  71 0002 0346     		mov	r3, r0
 624:Middlewares/ST/STM32_USB_Device_Library/Class/CustomHID/Src/usbd_customhid.c ****   UNUSED(epnum);
  72              		.loc 1 624 3 is_stmt 1 view .LVU11
 625:Middlewares/ST/STM32_USB_Device_Library/Class/CustomHID/Src/usbd_customhid.c ****   USBD_CUSTOM_HID_HandleTypeDef *hhid;
  73              		.loc 1 625 3 view .LVU12
 626:Middlewares/ST/STM32_USB_Device_Library/Class/CustomHID/Src/usbd_customhid.c **** 
 627:Middlewares/ST/STM32_USB_Device_Library/Class/CustomHID/Src/usbd_customhid.c ****   if (pdev->pClassDataCmsit[pdev->classId] == NULL)
  74              		.loc 1 627 3 view .LVU13
  75              		.loc 1 627 33 is_stmt 0 view .LVU14
  76 0004 D0F8D422 		ldr	r2, [r0, #724]
  77              		.loc 1 627 28 view .LVU15
  78 0008 02F1B001 		add	r1, r2, #176
  79              	.LVL3:
  80              		.loc 1 627 28 view .LVU16
  81 000c 50F82100 		ldr	r0, [r0, r1, lsl #2]
  82              	.LVL4:
  83              		.loc 1 627 6 view .LVU17
  84 0010 30B1     		cbz	r0, .L4
 628:Middlewares/ST/STM32_USB_Device_Library/Class/CustomHID/Src/usbd_customhid.c ****   {
 629:Middlewares/ST/STM32_USB_Device_Library/Class/CustomHID/Src/usbd_customhid.c ****     return (uint8_t)USBD_FAIL;
 630:Middlewares/ST/STM32_USB_Device_Library/Class/CustomHID/Src/usbd_customhid.c ****   }
 631:Middlewares/ST/STM32_USB_Device_Library/Class/CustomHID/Src/usbd_customhid.c **** 
 632:Middlewares/ST/STM32_USB_Device_Library/Class/CustomHID/Src/usbd_customhid.c ****   hhid = (USBD_CUSTOM_HID_HandleTypeDef *)pdev->pClassDataCmsit[pdev->classId];
  85              		.loc 1 632 3 is_stmt 1 view .LVU18
  86              	.LVL5:
 633:Middlewares/ST/STM32_USB_Device_Library/Class/CustomHID/Src/usbd_customhid.c **** 
 634:Middlewares/ST/STM32_USB_Device_Library/Class/CustomHID/Src/usbd_customhid.c ****   /* USB data will be immediately processed, this allow next USB traffic being
 635:Middlewares/ST/STM32_USB_Device_Library/Class/CustomHID/Src/usbd_customhid.c ****   NAKed till the end of the application processing */
 636:Middlewares/ST/STM32_USB_Device_Library/Class/CustomHID/Src/usbd_customhid.c ****   ((USBD_CUSTOM_HID_ItfTypeDef *)pdev->pUserData[pdev->classId])->OutEvent(hhid->Report_buf);
  87              		.loc 1 636 3 view .LVU19
  88              		.loc 1 636 49 is_stmt 0 view .LVU20
  89 0012 03EB8103 		add	r3, r3, r1, lsl #2
  90              	.LVL6:
  91              		.loc 1 636 49 view .LVU21
  92 0016 5B68     		ldr	r3, [r3, #4]
  93              		.loc 1 636 65 view .LVU22
  94 0018 DB68     		ldr	r3, [r3, #12]
  95              		.loc 1 636 4 view .LVU23
  96 001a 9847     		blx	r3
  97              	.LVL7:
 637:Middlewares/ST/STM32_USB_Device_Library/Class/CustomHID/Src/usbd_customhid.c **** 
 638:Middlewares/ST/STM32_USB_Device_Library/Class/CustomHID/Src/usbd_customhid.c ****   return (uint8_t)USBD_OK;
  98              		.loc 1 638 3 is_stmt 1 view .LVU24
  99              		.loc 1 638 10 is_stmt 0 view .LVU25
 100 001c 0020     		movs	r0, #0
 101              	.L3:
 639:Middlewares/ST/STM32_USB_Device_Library/Class/CustomHID/Src/usbd_customhid.c **** }
 102              		.loc 1 639 1 view .LVU26
 103 001e 08BD     		pop	{r3, pc}
 104              	.LVL8:
 105              	.L4:
ARM GAS  C:\Users\Bence\AppData\Local\Temp\cc6pT357.s 			page 14


 629:Middlewares/ST/STM32_USB_Device_Library/Class/CustomHID/Src/usbd_customhid.c ****   }
 106              		.loc 1 629 12 view .LVU27
 107 0020 0320     		movs	r0, #3
 108 0022 FCE7     		b	.L3
 109              		.cfi_endproc
 110              	.LFE142:
 112              		.section	.text.USBD_CUSTOM_HID_EP0_RxReady,"ax",%progbits
 113              		.align	1
 114              		.syntax unified
 115              		.thumb
 116              		.thumb_func
 118              	USBD_CUSTOM_HID_EP0_RxReady:
 119              	.LVL9:
 120              	.LFB144:
 640:Middlewares/ST/STM32_USB_Device_Library/Class/CustomHID/Src/usbd_customhid.c **** 
 641:Middlewares/ST/STM32_USB_Device_Library/Class/CustomHID/Src/usbd_customhid.c **** 
 642:Middlewares/ST/STM32_USB_Device_Library/Class/CustomHID/Src/usbd_customhid.c **** /**
 643:Middlewares/ST/STM32_USB_Device_Library/Class/CustomHID/Src/usbd_customhid.c ****   * @brief  USBD_CUSTOM_HID_ReceivePacket
 644:Middlewares/ST/STM32_USB_Device_Library/Class/CustomHID/Src/usbd_customhid.c ****   *         prepare OUT Endpoint for reception
 645:Middlewares/ST/STM32_USB_Device_Library/Class/CustomHID/Src/usbd_customhid.c ****   * @param  pdev: device instance
 646:Middlewares/ST/STM32_USB_Device_Library/Class/CustomHID/Src/usbd_customhid.c ****   * @retval status
 647:Middlewares/ST/STM32_USB_Device_Library/Class/CustomHID/Src/usbd_customhid.c ****   */
 648:Middlewares/ST/STM32_USB_Device_Library/Class/CustomHID/Src/usbd_customhid.c **** uint8_t USBD_CUSTOM_HID_ReceivePacket(USBD_HandleTypeDef *pdev)
 649:Middlewares/ST/STM32_USB_Device_Library/Class/CustomHID/Src/usbd_customhid.c **** {
 650:Middlewares/ST/STM32_USB_Device_Library/Class/CustomHID/Src/usbd_customhid.c ****   USBD_CUSTOM_HID_HandleTypeDef *hhid;
 651:Middlewares/ST/STM32_USB_Device_Library/Class/CustomHID/Src/usbd_customhid.c **** 
 652:Middlewares/ST/STM32_USB_Device_Library/Class/CustomHID/Src/usbd_customhid.c ****   if (pdev->pClassDataCmsit[pdev->classId] == NULL)
 653:Middlewares/ST/STM32_USB_Device_Library/Class/CustomHID/Src/usbd_customhid.c ****   {
 654:Middlewares/ST/STM32_USB_Device_Library/Class/CustomHID/Src/usbd_customhid.c ****     return (uint8_t)USBD_FAIL;
 655:Middlewares/ST/STM32_USB_Device_Library/Class/CustomHID/Src/usbd_customhid.c ****   }
 656:Middlewares/ST/STM32_USB_Device_Library/Class/CustomHID/Src/usbd_customhid.c **** 
 657:Middlewares/ST/STM32_USB_Device_Library/Class/CustomHID/Src/usbd_customhid.c **** #ifdef USE_USBD_COMPOSITE
 658:Middlewares/ST/STM32_USB_Device_Library/Class/CustomHID/Src/usbd_customhid.c ****   /* Get OUT Endpoint address allocated for this class instance */
 659:Middlewares/ST/STM32_USB_Device_Library/Class/CustomHID/Src/usbd_customhid.c ****   CUSTOMHIDOutEpAdd = USBD_CoreGetEPAdd(pdev, USBD_EP_OUT, USBD_EP_TYPE_INTR);
 660:Middlewares/ST/STM32_USB_Device_Library/Class/CustomHID/Src/usbd_customhid.c **** #endif /* USE_USBD_COMPOSITE */
 661:Middlewares/ST/STM32_USB_Device_Library/Class/CustomHID/Src/usbd_customhid.c **** 
 662:Middlewares/ST/STM32_USB_Device_Library/Class/CustomHID/Src/usbd_customhid.c ****   hhid = (USBD_CUSTOM_HID_HandleTypeDef *)pdev->pClassDataCmsit[pdev->classId];
 663:Middlewares/ST/STM32_USB_Device_Library/Class/CustomHID/Src/usbd_customhid.c **** 
 664:Middlewares/ST/STM32_USB_Device_Library/Class/CustomHID/Src/usbd_customhid.c ****   /* Resume USB Out process */
 665:Middlewares/ST/STM32_USB_Device_Library/Class/CustomHID/Src/usbd_customhid.c ****   (void)USBD_LL_PrepareReceive(pdev, CUSTOMHIDOutEpAdd, hhid->Report_buf,
 666:Middlewares/ST/STM32_USB_Device_Library/Class/CustomHID/Src/usbd_customhid.c ****                                USBD_CUSTOMHID_OUTREPORT_BUF_SIZE);
 667:Middlewares/ST/STM32_USB_Device_Library/Class/CustomHID/Src/usbd_customhid.c **** 
 668:Middlewares/ST/STM32_USB_Device_Library/Class/CustomHID/Src/usbd_customhid.c ****   return (uint8_t)USBD_OK;
 669:Middlewares/ST/STM32_USB_Device_Library/Class/CustomHID/Src/usbd_customhid.c **** }
 670:Middlewares/ST/STM32_USB_Device_Library/Class/CustomHID/Src/usbd_customhid.c **** 
 671:Middlewares/ST/STM32_USB_Device_Library/Class/CustomHID/Src/usbd_customhid.c **** 
 672:Middlewares/ST/STM32_USB_Device_Library/Class/CustomHID/Src/usbd_customhid.c **** /**
 673:Middlewares/ST/STM32_USB_Device_Library/Class/CustomHID/Src/usbd_customhid.c ****   * @brief  USBD_CUSTOM_HID_EP0_RxReady
 674:Middlewares/ST/STM32_USB_Device_Library/Class/CustomHID/Src/usbd_customhid.c ****   *         Handles control request data.
 675:Middlewares/ST/STM32_USB_Device_Library/Class/CustomHID/Src/usbd_customhid.c ****   * @param  pdev: device instance
 676:Middlewares/ST/STM32_USB_Device_Library/Class/CustomHID/Src/usbd_customhid.c ****   * @retval status
 677:Middlewares/ST/STM32_USB_Device_Library/Class/CustomHID/Src/usbd_customhid.c ****   */
 678:Middlewares/ST/STM32_USB_Device_Library/Class/CustomHID/Src/usbd_customhid.c **** static uint8_t USBD_CUSTOM_HID_EP0_RxReady(USBD_HandleTypeDef *pdev)
 679:Middlewares/ST/STM32_USB_Device_Library/Class/CustomHID/Src/usbd_customhid.c **** {
 121              		.loc 1 679 1 is_stmt 1 view -0
 122              		.cfi_startproc
 123              		@ args = 0, pretend = 0, frame = 0
ARM GAS  C:\Users\Bence\AppData\Local\Temp\cc6pT357.s 			page 15


 124              		@ frame_needed = 0, uses_anonymous_args = 0
 125              		.loc 1 679 1 is_stmt 0 view .LVU29
 126 0000 10B5     		push	{r4, lr}
 127              	.LCFI1:
 128              		.cfi_def_cfa_offset 8
 129              		.cfi_offset 4, -8
 130              		.cfi_offset 14, -4
 680:Middlewares/ST/STM32_USB_Device_Library/Class/CustomHID/Src/usbd_customhid.c ****   USBD_CUSTOM_HID_HandleTypeDef *hhid = (USBD_CUSTOM_HID_HandleTypeDef *)pdev->pClassDataCmsit[pdev
 131              		.loc 1 680 3 is_stmt 1 view .LVU30
 132              		.loc 1 680 100 is_stmt 0 view .LVU31
 133 0002 D0F8D432 		ldr	r3, [r0, #724]
 134              		.loc 1 680 34 view .LVU32
 135 0006 03F1B002 		add	r2, r3, #176
 136 000a 50F82240 		ldr	r4, [r0, r2, lsl #2]
 137              	.LVL10:
 681:Middlewares/ST/STM32_USB_Device_Library/Class/CustomHID/Src/usbd_customhid.c **** 
 682:Middlewares/ST/STM32_USB_Device_Library/Class/CustomHID/Src/usbd_customhid.c ****   if (hhid == NULL)
 138              		.loc 1 682 3 is_stmt 1 view .LVU33
 139              		.loc 1 682 6 is_stmt 0 view .LVU34
 140 000e 74B1     		cbz	r4, .L8
 683:Middlewares/ST/STM32_USB_Device_Library/Class/CustomHID/Src/usbd_customhid.c ****   {
 684:Middlewares/ST/STM32_USB_Device_Library/Class/CustomHID/Src/usbd_customhid.c ****     return (uint8_t)USBD_FAIL;
 685:Middlewares/ST/STM32_USB_Device_Library/Class/CustomHID/Src/usbd_customhid.c ****   }
 686:Middlewares/ST/STM32_USB_Device_Library/Class/CustomHID/Src/usbd_customhid.c **** 
 687:Middlewares/ST/STM32_USB_Device_Library/Class/CustomHID/Src/usbd_customhid.c ****   if (hhid->IsReportAvailable == 1U)
 141              		.loc 1 687 3 is_stmt 1 view .LVU35
 142              		.loc 1 687 11 is_stmt 0 view .LVU36
 143 0010 E26C     		ldr	r2, [r4, #76]
 144              		.loc 1 687 6 view .LVU37
 145 0012 012A     		cmp	r2, #1
 146 0014 01D0     		beq	.L11
 688:Middlewares/ST/STM32_USB_Device_Library/Class/CustomHID/Src/usbd_customhid.c ****   {
 689:Middlewares/ST/STM32_USB_Device_Library/Class/CustomHID/Src/usbd_customhid.c ****     ((USBD_CUSTOM_HID_ItfTypeDef *)pdev->pUserData[pdev->classId])->OutEvent(hhid->Report_buf);
 690:Middlewares/ST/STM32_USB_Device_Library/Class/CustomHID/Src/usbd_customhid.c ****     hhid->IsReportAvailable = 0U;
 691:Middlewares/ST/STM32_USB_Device_Library/Class/CustomHID/Src/usbd_customhid.c ****   }
 692:Middlewares/ST/STM32_USB_Device_Library/Class/CustomHID/Src/usbd_customhid.c **** 
 693:Middlewares/ST/STM32_USB_Device_Library/Class/CustomHID/Src/usbd_customhid.c ****   return (uint8_t)USBD_OK;
 147              		.loc 1 693 10 view .LVU38
 148 0016 0020     		movs	r0, #0
 149              	.LVL11:
 150              	.L7:
 694:Middlewares/ST/STM32_USB_Device_Library/Class/CustomHID/Src/usbd_customhid.c **** }
 151              		.loc 1 694 1 view .LVU39
 152 0018 10BD     		pop	{r4, pc}
 153              	.LVL12:
 154              	.L11:
 689:Middlewares/ST/STM32_USB_Device_Library/Class/CustomHID/Src/usbd_customhid.c ****     hhid->IsReportAvailable = 0U;
 155              		.loc 1 689 5 is_stmt 1 view .LVU40
 689:Middlewares/ST/STM32_USB_Device_Library/Class/CustomHID/Src/usbd_customhid.c ****     hhid->IsReportAvailable = 0U;
 156              		.loc 1 689 51 is_stmt 0 view .LVU41
 157 001a B033     		adds	r3, r3, #176
 158 001c 00EB8300 		add	r0, r0, r3, lsl #2
 159              	.LVL13:
 689:Middlewares/ST/STM32_USB_Device_Library/Class/CustomHID/Src/usbd_customhid.c ****     hhid->IsReportAvailable = 0U;
 160              		.loc 1 689 51 view .LVU42
 161 0020 4368     		ldr	r3, [r0, #4]
 689:Middlewares/ST/STM32_USB_Device_Library/Class/CustomHID/Src/usbd_customhid.c ****     hhid->IsReportAvailable = 0U;
ARM GAS  C:\Users\Bence\AppData\Local\Temp\cc6pT357.s 			page 16


 162              		.loc 1 689 67 view .LVU43
 163 0022 DB68     		ldr	r3, [r3, #12]
 689:Middlewares/ST/STM32_USB_Device_Library/Class/CustomHID/Src/usbd_customhid.c ****     hhid->IsReportAvailable = 0U;
 164              		.loc 1 689 6 view .LVU44
 165 0024 2046     		mov	r0, r4
 166 0026 9847     		blx	r3
 167              	.LVL14:
 690:Middlewares/ST/STM32_USB_Device_Library/Class/CustomHID/Src/usbd_customhid.c ****   }
 168              		.loc 1 690 5 is_stmt 1 view .LVU45
 690:Middlewares/ST/STM32_USB_Device_Library/Class/CustomHID/Src/usbd_customhid.c ****   }
 169              		.loc 1 690 29 is_stmt 0 view .LVU46
 170 0028 0020     		movs	r0, #0
 171 002a E064     		str	r0, [r4, #76]
 172 002c F4E7     		b	.L7
 173              	.LVL15:
 174              	.L8:
 684:Middlewares/ST/STM32_USB_Device_Library/Class/CustomHID/Src/usbd_customhid.c ****   }
 175              		.loc 1 684 12 view .LVU47
 176 002e 0320     		movs	r0, #3
 177              	.LVL16:
 684:Middlewares/ST/STM32_USB_Device_Library/Class/CustomHID/Src/usbd_customhid.c ****   }
 178              		.loc 1 684 12 view .LVU48
 179 0030 F2E7     		b	.L7
 180              		.cfi_endproc
 181              	.LFE144:
 183              		.section	.text.USBD_CUSTOM_HID_GetDeviceQualifierDesc,"ax",%progbits
 184              		.align	1
 185              		.syntax unified
 186              		.thumb
 187              		.thumb_func
 189              	USBD_CUSTOM_HID_GetDeviceQualifierDesc:
 190              	.LVL17:
 191              	.LFB145:
 695:Middlewares/ST/STM32_USB_Device_Library/Class/CustomHID/Src/usbd_customhid.c **** 
 696:Middlewares/ST/STM32_USB_Device_Library/Class/CustomHID/Src/usbd_customhid.c **** #ifndef USE_USBD_COMPOSITE
 697:Middlewares/ST/STM32_USB_Device_Library/Class/CustomHID/Src/usbd_customhid.c **** /**
 698:Middlewares/ST/STM32_USB_Device_Library/Class/CustomHID/Src/usbd_customhid.c ****   * @brief  DeviceQualifierDescriptor
 699:Middlewares/ST/STM32_USB_Device_Library/Class/CustomHID/Src/usbd_customhid.c ****   *         return Device Qualifier descriptor
 700:Middlewares/ST/STM32_USB_Device_Library/Class/CustomHID/Src/usbd_customhid.c ****   * @param  length : pointer data length
 701:Middlewares/ST/STM32_USB_Device_Library/Class/CustomHID/Src/usbd_customhid.c ****   * @retval pointer to descriptor buffer
 702:Middlewares/ST/STM32_USB_Device_Library/Class/CustomHID/Src/usbd_customhid.c ****   */
 703:Middlewares/ST/STM32_USB_Device_Library/Class/CustomHID/Src/usbd_customhid.c **** static uint8_t *USBD_CUSTOM_HID_GetDeviceQualifierDesc(uint16_t *length)
 704:Middlewares/ST/STM32_USB_Device_Library/Class/CustomHID/Src/usbd_customhid.c **** {
 192              		.loc 1 704 1 is_stmt 1 view -0
 193              		.cfi_startproc
 194              		@ args = 0, pretend = 0, frame = 0
 195              		@ frame_needed = 0, uses_anonymous_args = 0
 196              		@ link register save eliminated.
 705:Middlewares/ST/STM32_USB_Device_Library/Class/CustomHID/Src/usbd_customhid.c ****   *length = (uint16_t)sizeof(USBD_CUSTOM_HID_DeviceQualifierDesc);
 197              		.loc 1 705 3 view .LVU50
 198              		.loc 1 705 11 is_stmt 0 view .LVU51
 199 0000 0A23     		movs	r3, #10
 200 0002 0380     		strh	r3, [r0]	@ movhi
 706:Middlewares/ST/STM32_USB_Device_Library/Class/CustomHID/Src/usbd_customhid.c **** 
 707:Middlewares/ST/STM32_USB_Device_Library/Class/CustomHID/Src/usbd_customhid.c ****   return USBD_CUSTOM_HID_DeviceQualifierDesc;
 201              		.loc 1 707 3 is_stmt 1 view .LVU52
 708:Middlewares/ST/STM32_USB_Device_Library/Class/CustomHID/Src/usbd_customhid.c **** }
ARM GAS  C:\Users\Bence\AppData\Local\Temp\cc6pT357.s 			page 17


 202              		.loc 1 708 1 is_stmt 0 view .LVU53
 203 0004 0048     		ldr	r0, .L13
 204              	.LVL18:
 205              		.loc 1 708 1 view .LVU54
 206 0006 7047     		bx	lr
 207              	.L14:
 208              		.align	2
 209              	.L13:
 210 0008 00000000 		.word	.LANCHOR0
 211              		.cfi_endproc
 212              	.LFE145:
 214              		.section	.text.USBD_CUSTOM_HID_GetOtherSpeedCfgDesc,"ax",%progbits
 215              		.align	1
 216              		.syntax unified
 217              		.thumb
 218              		.thumb_func
 220              	USBD_CUSTOM_HID_GetOtherSpeedCfgDesc:
 221              	.LVL19:
 222              	.LFB140:
 576:Middlewares/ST/STM32_USB_Device_Library/Class/CustomHID/Src/usbd_customhid.c ****   USBD_EpDescTypeDef *pEpInDesc = USBD_GetEpDesc(USBD_CUSTOM_HID_CfgDesc, CUSTOM_HID_EPIN_ADDR);
 223              		.loc 1 576 1 is_stmt 1 view -0
 224              		.cfi_startproc
 225              		@ args = 0, pretend = 0, frame = 0
 226              		@ frame_needed = 0, uses_anonymous_args = 0
 576:Middlewares/ST/STM32_USB_Device_Library/Class/CustomHID/Src/usbd_customhid.c ****   USBD_EpDescTypeDef *pEpInDesc = USBD_GetEpDesc(USBD_CUSTOM_HID_CfgDesc, CUSTOM_HID_EPIN_ADDR);
 227              		.loc 1 576 1 is_stmt 0 view .LVU56
 228 0000 70B5     		push	{r4, r5, r6, lr}
 229              	.LCFI2:
 230              		.cfi_def_cfa_offset 16
 231              		.cfi_offset 4, -16
 232              		.cfi_offset 5, -12
 233              		.cfi_offset 6, -8
 234              		.cfi_offset 14, -4
 235 0002 0546     		mov	r5, r0
 577:Middlewares/ST/STM32_USB_Device_Library/Class/CustomHID/Src/usbd_customhid.c ****   USBD_EpDescTypeDef *pEpOutDesc = USBD_GetEpDesc(USBD_CUSTOM_HID_CfgDesc, CUSTOM_HID_EPOUT_ADDR);
 236              		.loc 1 577 3 is_stmt 1 view .LVU57
 577:Middlewares/ST/STM32_USB_Device_Library/Class/CustomHID/Src/usbd_customhid.c ****   USBD_EpDescTypeDef *pEpOutDesc = USBD_GetEpDesc(USBD_CUSTOM_HID_CfgDesc, CUSTOM_HID_EPOUT_ADDR);
 237              		.loc 1 577 35 is_stmt 0 view .LVU58
 238 0004 0D4E     		ldr	r6, .L19
 239 0006 8121     		movs	r1, #129
 240 0008 3046     		mov	r0, r6
 241              	.LVL20:
 577:Middlewares/ST/STM32_USB_Device_Library/Class/CustomHID/Src/usbd_customhid.c ****   USBD_EpDescTypeDef *pEpOutDesc = USBD_GetEpDesc(USBD_CUSTOM_HID_CfgDesc, CUSTOM_HID_EPOUT_ADDR);
 242              		.loc 1 577 35 view .LVU59
 243 000a FFF7FEFF 		bl	USBD_GetEpDesc
 244              	.LVL21:
 245 000e 0446     		mov	r4, r0
 246              	.LVL22:
 578:Middlewares/ST/STM32_USB_Device_Library/Class/CustomHID/Src/usbd_customhid.c **** 
 247              		.loc 1 578 3 is_stmt 1 view .LVU60
 578:Middlewares/ST/STM32_USB_Device_Library/Class/CustomHID/Src/usbd_customhid.c **** 
 248              		.loc 1 578 36 is_stmt 0 view .LVU61
 249 0010 0121     		movs	r1, #1
 250 0012 3046     		mov	r0, r6
 251              	.LVL23:
 578:Middlewares/ST/STM32_USB_Device_Library/Class/CustomHID/Src/usbd_customhid.c **** 
 252              		.loc 1 578 36 view .LVU62
ARM GAS  C:\Users\Bence\AppData\Local\Temp\cc6pT357.s 			page 18


 253 0014 FFF7FEFF 		bl	USBD_GetEpDesc
 254              	.LVL24:
 580:Middlewares/ST/STM32_USB_Device_Library/Class/CustomHID/Src/usbd_customhid.c ****   {
 255              		.loc 1 580 3 is_stmt 1 view .LVU63
 580:Middlewares/ST/STM32_USB_Device_Library/Class/CustomHID/Src/usbd_customhid.c ****   {
 256              		.loc 1 580 6 is_stmt 0 view .LVU64
 257 0018 2CB1     		cbz	r4, .L16
 582:Middlewares/ST/STM32_USB_Device_Library/Class/CustomHID/Src/usbd_customhid.c ****     pEpInDesc->bInterval = CUSTOM_HID_FS_BINTERVAL;
 258              		.loc 1 582 5 is_stmt 1 view .LVU65
 582:Middlewares/ST/STM32_USB_Device_Library/Class/CustomHID/Src/usbd_customhid.c ****     pEpInDesc->bInterval = CUSTOM_HID_FS_BINTERVAL;
 259              		.loc 1 582 31 is_stmt 0 view .LVU66
 260 001a 4022     		movs	r2, #64
 261 001c 2271     		strb	r2, [r4, #4]
 262 001e 0022     		movs	r2, #0
 263 0020 6271     		strb	r2, [r4, #5]
 583:Middlewares/ST/STM32_USB_Device_Library/Class/CustomHID/Src/usbd_customhid.c ****   }
 264              		.loc 1 583 5 is_stmt 1 view .LVU67
 583:Middlewares/ST/STM32_USB_Device_Library/Class/CustomHID/Src/usbd_customhid.c ****   }
 265              		.loc 1 583 26 is_stmt 0 view .LVU68
 266 0022 0522     		movs	r2, #5
 267 0024 A271     		strb	r2, [r4, #6]
 268              	.L16:
 586:Middlewares/ST/STM32_USB_Device_Library/Class/CustomHID/Src/usbd_customhid.c ****   {
 269              		.loc 1 586 3 is_stmt 1 view .LVU69
 586:Middlewares/ST/STM32_USB_Device_Library/Class/CustomHID/Src/usbd_customhid.c ****   {
 270              		.loc 1 586 6 is_stmt 0 view .LVU70
 271 0026 28B1     		cbz	r0, .L17
 588:Middlewares/ST/STM32_USB_Device_Library/Class/CustomHID/Src/usbd_customhid.c ****     pEpOutDesc->bInterval = CUSTOM_HID_FS_BINTERVAL;
 272              		.loc 1 588 5 is_stmt 1 view .LVU71
 588:Middlewares/ST/STM32_USB_Device_Library/Class/CustomHID/Src/usbd_customhid.c ****     pEpOutDesc->bInterval = CUSTOM_HID_FS_BINTERVAL;
 273              		.loc 1 588 32 is_stmt 0 view .LVU72
 274 0028 4022     		movs	r2, #64
 275 002a 0271     		strb	r2, [r0, #4]
 276 002c 0022     		movs	r2, #0
 277 002e 4271     		strb	r2, [r0, #5]
 589:Middlewares/ST/STM32_USB_Device_Library/Class/CustomHID/Src/usbd_customhid.c ****   }
 278              		.loc 1 589 5 is_stmt 1 view .LVU73
 589:Middlewares/ST/STM32_USB_Device_Library/Class/CustomHID/Src/usbd_customhid.c ****   }
 279              		.loc 1 589 27 is_stmt 0 view .LVU74
 280 0030 0522     		movs	r2, #5
 281 0032 8271     		strb	r2, [r0, #6]
 282              	.L17:
 592:Middlewares/ST/STM32_USB_Device_Library/Class/CustomHID/Src/usbd_customhid.c ****   return USBD_CUSTOM_HID_CfgDesc;
 283              		.loc 1 592 3 is_stmt 1 view .LVU75
 592:Middlewares/ST/STM32_USB_Device_Library/Class/CustomHID/Src/usbd_customhid.c ****   return USBD_CUSTOM_HID_CfgDesc;
 284              		.loc 1 592 11 is_stmt 0 view .LVU76
 285 0034 2923     		movs	r3, #41
 286 0036 2B80     		strh	r3, [r5]	@ movhi
 593:Middlewares/ST/STM32_USB_Device_Library/Class/CustomHID/Src/usbd_customhid.c **** }
 287              		.loc 1 593 3 is_stmt 1 view .LVU77
 594:Middlewares/ST/STM32_USB_Device_Library/Class/CustomHID/Src/usbd_customhid.c **** #endif /* USE_USBD_COMPOSITE  */
 288              		.loc 1 594 1 is_stmt 0 view .LVU78
 289 0038 0048     		ldr	r0, .L19
 290              	.LVL25:
 594:Middlewares/ST/STM32_USB_Device_Library/Class/CustomHID/Src/usbd_customhid.c **** #endif /* USE_USBD_COMPOSITE  */
 291              		.loc 1 594 1 view .LVU79
 292 003a 70BD     		pop	{r4, r5, r6, pc}
ARM GAS  C:\Users\Bence\AppData\Local\Temp\cc6pT357.s 			page 19


 293              	.LVL26:
 294              	.L20:
 594:Middlewares/ST/STM32_USB_Device_Library/Class/CustomHID/Src/usbd_customhid.c **** #endif /* USE_USBD_COMPOSITE  */
 295              		.loc 1 594 1 view .LVU80
 296              		.align	2
 297              	.L19:
 298 003c 00000000 		.word	.LANCHOR1
 299              		.cfi_endproc
 300              	.LFE140:
 302              		.section	.text.USBD_CUSTOM_HID_GetFSCfgDesc,"ax",%progbits
 303              		.align	1
 304              		.syntax unified
 305              		.thumb
 306              		.thumb_func
 308              	USBD_CUSTOM_HID_GetFSCfgDesc:
 309              	.LVL27:
 310              	.LFB138:
 520:Middlewares/ST/STM32_USB_Device_Library/Class/CustomHID/Src/usbd_customhid.c ****   USBD_EpDescTypeDef *pEpInDesc = USBD_GetEpDesc(USBD_CUSTOM_HID_CfgDesc, CUSTOM_HID_EPIN_ADDR);
 311              		.loc 1 520 1 is_stmt 1 view -0
 312              		.cfi_startproc
 313              		@ args = 0, pretend = 0, frame = 0
 314              		@ frame_needed = 0, uses_anonymous_args = 0
 520:Middlewares/ST/STM32_USB_Device_Library/Class/CustomHID/Src/usbd_customhid.c ****   USBD_EpDescTypeDef *pEpInDesc = USBD_GetEpDesc(USBD_CUSTOM_HID_CfgDesc, CUSTOM_HID_EPIN_ADDR);
 315              		.loc 1 520 1 is_stmt 0 view .LVU82
 316 0000 70B5     		push	{r4, r5, r6, lr}
 317              	.LCFI3:
 318              		.cfi_def_cfa_offset 16
 319              		.cfi_offset 4, -16
 320              		.cfi_offset 5, -12
 321              		.cfi_offset 6, -8
 322              		.cfi_offset 14, -4
 323 0002 0546     		mov	r5, r0
 521:Middlewares/ST/STM32_USB_Device_Library/Class/CustomHID/Src/usbd_customhid.c ****   USBD_EpDescTypeDef *pEpOutDesc = USBD_GetEpDesc(USBD_CUSTOM_HID_CfgDesc, CUSTOM_HID_EPOUT_ADDR);
 324              		.loc 1 521 3 is_stmt 1 view .LVU83
 521:Middlewares/ST/STM32_USB_Device_Library/Class/CustomHID/Src/usbd_customhid.c ****   USBD_EpDescTypeDef *pEpOutDesc = USBD_GetEpDesc(USBD_CUSTOM_HID_CfgDesc, CUSTOM_HID_EPOUT_ADDR);
 325              		.loc 1 521 35 is_stmt 0 view .LVU84
 326 0004 0D4E     		ldr	r6, .L25
 327 0006 8121     		movs	r1, #129
 328 0008 3046     		mov	r0, r6
 329              	.LVL28:
 521:Middlewares/ST/STM32_USB_Device_Library/Class/CustomHID/Src/usbd_customhid.c ****   USBD_EpDescTypeDef *pEpOutDesc = USBD_GetEpDesc(USBD_CUSTOM_HID_CfgDesc, CUSTOM_HID_EPOUT_ADDR);
 330              		.loc 1 521 35 view .LVU85
 331 000a FFF7FEFF 		bl	USBD_GetEpDesc
 332              	.LVL29:
 333 000e 0446     		mov	r4, r0
 334              	.LVL30:
 522:Middlewares/ST/STM32_USB_Device_Library/Class/CustomHID/Src/usbd_customhid.c **** 
 335              		.loc 1 522 3 is_stmt 1 view .LVU86
 522:Middlewares/ST/STM32_USB_Device_Library/Class/CustomHID/Src/usbd_customhid.c **** 
 336              		.loc 1 522 36 is_stmt 0 view .LVU87
 337 0010 0121     		movs	r1, #1
 338 0012 3046     		mov	r0, r6
 339              	.LVL31:
 522:Middlewares/ST/STM32_USB_Device_Library/Class/CustomHID/Src/usbd_customhid.c **** 
 340              		.loc 1 522 36 view .LVU88
 341 0014 FFF7FEFF 		bl	USBD_GetEpDesc
 342              	.LVL32:
ARM GAS  C:\Users\Bence\AppData\Local\Temp\cc6pT357.s 			page 20


 524:Middlewares/ST/STM32_USB_Device_Library/Class/CustomHID/Src/usbd_customhid.c ****   {
 343              		.loc 1 524 3 is_stmt 1 view .LVU89
 524:Middlewares/ST/STM32_USB_Device_Library/Class/CustomHID/Src/usbd_customhid.c ****   {
 344              		.loc 1 524 6 is_stmt 0 view .LVU90
 345 0018 2CB1     		cbz	r4, .L22
 526:Middlewares/ST/STM32_USB_Device_Library/Class/CustomHID/Src/usbd_customhid.c ****     pEpInDesc->bInterval = CUSTOM_HID_FS_BINTERVAL;
 346              		.loc 1 526 5 is_stmt 1 view .LVU91
 526:Middlewares/ST/STM32_USB_Device_Library/Class/CustomHID/Src/usbd_customhid.c ****     pEpInDesc->bInterval = CUSTOM_HID_FS_BINTERVAL;
 347              		.loc 1 526 31 is_stmt 0 view .LVU92
 348 001a 4022     		movs	r2, #64
 349 001c 2271     		strb	r2, [r4, #4]
 350 001e 0022     		movs	r2, #0
 351 0020 6271     		strb	r2, [r4, #5]
 527:Middlewares/ST/STM32_USB_Device_Library/Class/CustomHID/Src/usbd_customhid.c ****   }
 352              		.loc 1 527 5 is_stmt 1 view .LVU93
 527:Middlewares/ST/STM32_USB_Device_Library/Class/CustomHID/Src/usbd_customhid.c ****   }
 353              		.loc 1 527 26 is_stmt 0 view .LVU94
 354 0022 0522     		movs	r2, #5
 355 0024 A271     		strb	r2, [r4, #6]
 356              	.L22:
 530:Middlewares/ST/STM32_USB_Device_Library/Class/CustomHID/Src/usbd_customhid.c ****   {
 357              		.loc 1 530 3 is_stmt 1 view .LVU95
 530:Middlewares/ST/STM32_USB_Device_Library/Class/CustomHID/Src/usbd_customhid.c ****   {
 358              		.loc 1 530 6 is_stmt 0 view .LVU96
 359 0026 28B1     		cbz	r0, .L23
 532:Middlewares/ST/STM32_USB_Device_Library/Class/CustomHID/Src/usbd_customhid.c ****     pEpOutDesc->bInterval = CUSTOM_HID_FS_BINTERVAL;
 360              		.loc 1 532 5 is_stmt 1 view .LVU97
 532:Middlewares/ST/STM32_USB_Device_Library/Class/CustomHID/Src/usbd_customhid.c ****     pEpOutDesc->bInterval = CUSTOM_HID_FS_BINTERVAL;
 361              		.loc 1 532 32 is_stmt 0 view .LVU98
 362 0028 4022     		movs	r2, #64
 363 002a 0271     		strb	r2, [r0, #4]
 364 002c 0022     		movs	r2, #0
 365 002e 4271     		strb	r2, [r0, #5]
 533:Middlewares/ST/STM32_USB_Device_Library/Class/CustomHID/Src/usbd_customhid.c ****   }
 366              		.loc 1 533 5 is_stmt 1 view .LVU99
 533:Middlewares/ST/STM32_USB_Device_Library/Class/CustomHID/Src/usbd_customhid.c ****   }
 367              		.loc 1 533 27 is_stmt 0 view .LVU100
 368 0030 0522     		movs	r2, #5
 369 0032 8271     		strb	r2, [r0, #6]
 370              	.L23:
 536:Middlewares/ST/STM32_USB_Device_Library/Class/CustomHID/Src/usbd_customhid.c ****   return USBD_CUSTOM_HID_CfgDesc;
 371              		.loc 1 536 3 is_stmt 1 view .LVU101
 536:Middlewares/ST/STM32_USB_Device_Library/Class/CustomHID/Src/usbd_customhid.c ****   return USBD_CUSTOM_HID_CfgDesc;
 372              		.loc 1 536 11 is_stmt 0 view .LVU102
 373 0034 2923     		movs	r3, #41
 374 0036 2B80     		strh	r3, [r5]	@ movhi
 537:Middlewares/ST/STM32_USB_Device_Library/Class/CustomHID/Src/usbd_customhid.c **** }
 375              		.loc 1 537 3 is_stmt 1 view .LVU103
 538:Middlewares/ST/STM32_USB_Device_Library/Class/CustomHID/Src/usbd_customhid.c **** 
 376              		.loc 1 538 1 is_stmt 0 view .LVU104
 377 0038 0048     		ldr	r0, .L25
 378              	.LVL33:
 538:Middlewares/ST/STM32_USB_Device_Library/Class/CustomHID/Src/usbd_customhid.c **** 
 379              		.loc 1 538 1 view .LVU105
 380 003a 70BD     		pop	{r4, r5, r6, pc}
 381              	.LVL34:
 382              	.L26:
ARM GAS  C:\Users\Bence\AppData\Local\Temp\cc6pT357.s 			page 21


 538:Middlewares/ST/STM32_USB_Device_Library/Class/CustomHID/Src/usbd_customhid.c **** 
 383              		.loc 1 538 1 view .LVU106
 384              		.align	2
 385              	.L25:
 386 003c 00000000 		.word	.LANCHOR1
 387              		.cfi_endproc
 388              	.LFE138:
 390              		.section	.text.USBD_CUSTOM_HID_GetHSCfgDesc,"ax",%progbits
 391              		.align	1
 392              		.syntax unified
 393              		.thumb
 394              		.thumb_func
 396              	USBD_CUSTOM_HID_GetHSCfgDesc:
 397              	.LVL35:
 398              	.LFB139:
 548:Middlewares/ST/STM32_USB_Device_Library/Class/CustomHID/Src/usbd_customhid.c ****   USBD_EpDescTypeDef *pEpInDesc = USBD_GetEpDesc(USBD_CUSTOM_HID_CfgDesc, CUSTOM_HID_EPIN_ADDR);
 399              		.loc 1 548 1 is_stmt 1 view -0
 400              		.cfi_startproc
 401              		@ args = 0, pretend = 0, frame = 0
 402              		@ frame_needed = 0, uses_anonymous_args = 0
 548:Middlewares/ST/STM32_USB_Device_Library/Class/CustomHID/Src/usbd_customhid.c ****   USBD_EpDescTypeDef *pEpInDesc = USBD_GetEpDesc(USBD_CUSTOM_HID_CfgDesc, CUSTOM_HID_EPIN_ADDR);
 403              		.loc 1 548 1 is_stmt 0 view .LVU108
 404 0000 70B5     		push	{r4, r5, r6, lr}
 405              	.LCFI4:
 406              		.cfi_def_cfa_offset 16
 407              		.cfi_offset 4, -16
 408              		.cfi_offset 5, -12
 409              		.cfi_offset 6, -8
 410              		.cfi_offset 14, -4
 411 0002 0546     		mov	r5, r0
 549:Middlewares/ST/STM32_USB_Device_Library/Class/CustomHID/Src/usbd_customhid.c ****   USBD_EpDescTypeDef *pEpOutDesc = USBD_GetEpDesc(USBD_CUSTOM_HID_CfgDesc, CUSTOM_HID_EPOUT_ADDR);
 412              		.loc 1 549 3 is_stmt 1 view .LVU109
 549:Middlewares/ST/STM32_USB_Device_Library/Class/CustomHID/Src/usbd_customhid.c ****   USBD_EpDescTypeDef *pEpOutDesc = USBD_GetEpDesc(USBD_CUSTOM_HID_CfgDesc, CUSTOM_HID_EPOUT_ADDR);
 413              		.loc 1 549 35 is_stmt 0 view .LVU110
 414 0004 0D4E     		ldr	r6, .L31
 415 0006 8121     		movs	r1, #129
 416 0008 3046     		mov	r0, r6
 417              	.LVL36:
 549:Middlewares/ST/STM32_USB_Device_Library/Class/CustomHID/Src/usbd_customhid.c ****   USBD_EpDescTypeDef *pEpOutDesc = USBD_GetEpDesc(USBD_CUSTOM_HID_CfgDesc, CUSTOM_HID_EPOUT_ADDR);
 418              		.loc 1 549 35 view .LVU111
 419 000a FFF7FEFF 		bl	USBD_GetEpDesc
 420              	.LVL37:
 421 000e 0446     		mov	r4, r0
 422              	.LVL38:
 550:Middlewares/ST/STM32_USB_Device_Library/Class/CustomHID/Src/usbd_customhid.c **** 
 423              		.loc 1 550 3 is_stmt 1 view .LVU112
 550:Middlewares/ST/STM32_USB_Device_Library/Class/CustomHID/Src/usbd_customhid.c **** 
 424              		.loc 1 550 36 is_stmt 0 view .LVU113
 425 0010 0121     		movs	r1, #1
 426 0012 3046     		mov	r0, r6
 427              	.LVL39:
 550:Middlewares/ST/STM32_USB_Device_Library/Class/CustomHID/Src/usbd_customhid.c **** 
 428              		.loc 1 550 36 view .LVU114
 429 0014 FFF7FEFF 		bl	USBD_GetEpDesc
 430              	.LVL40:
 552:Middlewares/ST/STM32_USB_Device_Library/Class/CustomHID/Src/usbd_customhid.c ****   {
 431              		.loc 1 552 3 is_stmt 1 view .LVU115
ARM GAS  C:\Users\Bence\AppData\Local\Temp\cc6pT357.s 			page 22


 552:Middlewares/ST/STM32_USB_Device_Library/Class/CustomHID/Src/usbd_customhid.c ****   {
 432              		.loc 1 552 6 is_stmt 0 view .LVU116
 433 0018 2CB1     		cbz	r4, .L28
 554:Middlewares/ST/STM32_USB_Device_Library/Class/CustomHID/Src/usbd_customhid.c ****     pEpInDesc->bInterval = CUSTOM_HID_HS_BINTERVAL;
 434              		.loc 1 554 5 is_stmt 1 view .LVU117
 554:Middlewares/ST/STM32_USB_Device_Library/Class/CustomHID/Src/usbd_customhid.c ****     pEpInDesc->bInterval = CUSTOM_HID_HS_BINTERVAL;
 435              		.loc 1 554 31 is_stmt 0 view .LVU118
 436 001a 4022     		movs	r2, #64
 437 001c 2271     		strb	r2, [r4, #4]
 438 001e 0022     		movs	r2, #0
 439 0020 6271     		strb	r2, [r4, #5]
 555:Middlewares/ST/STM32_USB_Device_Library/Class/CustomHID/Src/usbd_customhid.c ****   }
 440              		.loc 1 555 5 is_stmt 1 view .LVU119
 555:Middlewares/ST/STM32_USB_Device_Library/Class/CustomHID/Src/usbd_customhid.c ****   }
 441              		.loc 1 555 26 is_stmt 0 view .LVU120
 442 0022 0522     		movs	r2, #5
 443 0024 A271     		strb	r2, [r4, #6]
 444              	.L28:
 558:Middlewares/ST/STM32_USB_Device_Library/Class/CustomHID/Src/usbd_customhid.c ****   {
 445              		.loc 1 558 3 is_stmt 1 view .LVU121
 558:Middlewares/ST/STM32_USB_Device_Library/Class/CustomHID/Src/usbd_customhid.c ****   {
 446              		.loc 1 558 6 is_stmt 0 view .LVU122
 447 0026 28B1     		cbz	r0, .L29
 560:Middlewares/ST/STM32_USB_Device_Library/Class/CustomHID/Src/usbd_customhid.c ****     pEpOutDesc->bInterval = CUSTOM_HID_HS_BINTERVAL;
 448              		.loc 1 560 5 is_stmt 1 view .LVU123
 560:Middlewares/ST/STM32_USB_Device_Library/Class/CustomHID/Src/usbd_customhid.c ****     pEpOutDesc->bInterval = CUSTOM_HID_HS_BINTERVAL;
 449              		.loc 1 560 32 is_stmt 0 view .LVU124
 450 0028 4022     		movs	r2, #64
 451 002a 0271     		strb	r2, [r0, #4]
 452 002c 0022     		movs	r2, #0
 453 002e 4271     		strb	r2, [r0, #5]
 561:Middlewares/ST/STM32_USB_Device_Library/Class/CustomHID/Src/usbd_customhid.c ****   }
 454              		.loc 1 561 5 is_stmt 1 view .LVU125
 561:Middlewares/ST/STM32_USB_Device_Library/Class/CustomHID/Src/usbd_customhid.c ****   }
 455              		.loc 1 561 27 is_stmt 0 view .LVU126
 456 0030 0522     		movs	r2, #5
 457 0032 8271     		strb	r2, [r0, #6]
 458              	.L29:
 564:Middlewares/ST/STM32_USB_Device_Library/Class/CustomHID/Src/usbd_customhid.c ****   return USBD_CUSTOM_HID_CfgDesc;
 459              		.loc 1 564 3 is_stmt 1 view .LVU127
 564:Middlewares/ST/STM32_USB_Device_Library/Class/CustomHID/Src/usbd_customhid.c ****   return USBD_CUSTOM_HID_CfgDesc;
 460              		.loc 1 564 11 is_stmt 0 view .LVU128
 461 0034 2923     		movs	r3, #41
 462 0036 2B80     		strh	r3, [r5]	@ movhi
 565:Middlewares/ST/STM32_USB_Device_Library/Class/CustomHID/Src/usbd_customhid.c **** }
 463              		.loc 1 565 3 is_stmt 1 view .LVU129
 566:Middlewares/ST/STM32_USB_Device_Library/Class/CustomHID/Src/usbd_customhid.c **** 
 464              		.loc 1 566 1 is_stmt 0 view .LVU130
 465 0038 0048     		ldr	r0, .L31
 466              	.LVL41:
 566:Middlewares/ST/STM32_USB_Device_Library/Class/CustomHID/Src/usbd_customhid.c **** 
 467              		.loc 1 566 1 view .LVU131
 468 003a 70BD     		pop	{r4, r5, r6, pc}
 469              	.LVL42:
 470              	.L32:
 566:Middlewares/ST/STM32_USB_Device_Library/Class/CustomHID/Src/usbd_customhid.c **** 
 471              		.loc 1 566 1 view .LVU132
ARM GAS  C:\Users\Bence\AppData\Local\Temp\cc6pT357.s 			page 23


 472              		.align	2
 473              	.L31:
 474 003c 00000000 		.word	.LANCHOR1
 475              		.cfi_endproc
 476              	.LFE139:
 478              		.section	.text.USBD_CUSTOM_HID_Setup,"ax",%progbits
 479              		.align	1
 480              		.syntax unified
 481              		.thumb
 482              		.thumb_func
 484              	USBD_CUSTOM_HID_Setup:
 485              	.LVL43:
 486              	.LFB136:
 352:Middlewares/ST/STM32_USB_Device_Library/Class/CustomHID/Src/usbd_customhid.c ****   USBD_CUSTOM_HID_HandleTypeDef *hhid = (USBD_CUSTOM_HID_HandleTypeDef *)pdev->pClassDataCmsit[pdev
 487              		.loc 1 352 1 is_stmt 1 view -0
 488              		.cfi_startproc
 489              		@ args = 0, pretend = 0, frame = 8
 490              		@ frame_needed = 0, uses_anonymous_args = 0
 352:Middlewares/ST/STM32_USB_Device_Library/Class/CustomHID/Src/usbd_customhid.c ****   USBD_CUSTOM_HID_HandleTypeDef *hhid = (USBD_CUSTOM_HID_HandleTypeDef *)pdev->pClassDataCmsit[pdev
 491              		.loc 1 352 1 is_stmt 0 view .LVU134
 492 0000 70B5     		push	{r4, r5, r6, lr}
 493              	.LCFI5:
 494              		.cfi_def_cfa_offset 16
 495              		.cfi_offset 4, -16
 496              		.cfi_offset 5, -12
 497              		.cfi_offset 6, -8
 498              		.cfi_offset 14, -4
 499 0002 82B0     		sub	sp, sp, #8
 500              	.LCFI6:
 501              		.cfi_def_cfa_offset 24
 353:Middlewares/ST/STM32_USB_Device_Library/Class/CustomHID/Src/usbd_customhid.c ****   uint16_t len = 0U;
 502              		.loc 1 353 3 is_stmt 1 view .LVU135
 353:Middlewares/ST/STM32_USB_Device_Library/Class/CustomHID/Src/usbd_customhid.c ****   uint16_t len = 0U;
 503              		.loc 1 353 100 is_stmt 0 view .LVU136
 504 0004 D0F8D452 		ldr	r5, [r0, #724]
 353:Middlewares/ST/STM32_USB_Device_Library/Class/CustomHID/Src/usbd_customhid.c ****   uint16_t len = 0U;
 505              		.loc 1 353 34 view .LVU137
 506 0008 05F1B003 		add	r3, r5, #176
 507 000c 50F82330 		ldr	r3, [r0, r3, lsl #2]
 508              	.LVL44:
 354:Middlewares/ST/STM32_USB_Device_Library/Class/CustomHID/Src/usbd_customhid.c ****   uint8_t  *pbuf = NULL;
 509              		.loc 1 354 3 is_stmt 1 view .LVU138
 355:Middlewares/ST/STM32_USB_Device_Library/Class/CustomHID/Src/usbd_customhid.c ****   uint16_t status_info = 0U;
 510              		.loc 1 355 3 view .LVU139
 356:Middlewares/ST/STM32_USB_Device_Library/Class/CustomHID/Src/usbd_customhid.c ****   USBD_StatusTypeDef ret = USBD_OK;
 511              		.loc 1 356 3 view .LVU140
 356:Middlewares/ST/STM32_USB_Device_Library/Class/CustomHID/Src/usbd_customhid.c ****   USBD_StatusTypeDef ret = USBD_OK;
 512              		.loc 1 356 12 is_stmt 0 view .LVU141
 513 0010 0022     		movs	r2, #0
 514 0012 ADF80620 		strh	r2, [sp, #6]	@ movhi
 357:Middlewares/ST/STM32_USB_Device_Library/Class/CustomHID/Src/usbd_customhid.c **** 
 515              		.loc 1 357 3 is_stmt 1 view .LVU142
 516              	.LVL45:
 359:Middlewares/ST/STM32_USB_Device_Library/Class/CustomHID/Src/usbd_customhid.c ****   {
 517              		.loc 1 359 3 view .LVU143
 359:Middlewares/ST/STM32_USB_Device_Library/Class/CustomHID/Src/usbd_customhid.c ****   {
 518              		.loc 1 359 6 is_stmt 0 view .LVU144
ARM GAS  C:\Users\Bence\AppData\Local\Temp\cc6pT357.s 			page 24


 519 0016 002B     		cmp	r3, #0
 520 0018 00F09380 		beq	.L55
 364:Middlewares/ST/STM32_USB_Device_Library/Class/CustomHID/Src/usbd_customhid.c ****   {
 521              		.loc 1 364 3 is_stmt 1 view .LVU145
 364:Middlewares/ST/STM32_USB_Device_Library/Class/CustomHID/Src/usbd_customhid.c ****   {
 522              		.loc 1 364 14 is_stmt 0 view .LVU146
 523 001c 0C78     		ldrb	r4, [r1]	@ zero_extendqisi2
 364:Middlewares/ST/STM32_USB_Device_Library/Class/CustomHID/Src/usbd_customhid.c ****   {
 524              		.loc 1 364 3 view .LVU147
 525 001e 14F06004 		ands	r4, r4, #96
 526 0022 33D0     		beq	.L35
 527 0024 202C     		cmp	r4, #32
 528 0026 40F08680 		bne	.L36
 367:Middlewares/ST/STM32_USB_Device_Library/Class/CustomHID/Src/usbd_customhid.c ****       {
 529              		.loc 1 367 7 is_stmt 1 view .LVU148
 367:Middlewares/ST/STM32_USB_Device_Library/Class/CustomHID/Src/usbd_customhid.c ****       {
 530              		.loc 1 367 18 is_stmt 0 view .LVU149
 531 002a 4A78     		ldrb	r2, [r1, #1]	@ zero_extendqisi2
 532 002c 023A     		subs	r2, r2, #2
 533 002e 092A     		cmp	r2, #9
 534 0030 28D8     		bhi	.L37
 535 0032 DFE802F0 		tbb	[pc, r2]
 536              	.L39:
 537 0036 15       		.byte	(.L43-.L39)/2
 538 0037 09       		.byte	(.L42-.L39)/2
 539 0038 27       		.byte	(.L37-.L39)/2
 540 0039 27       		.byte	(.L37-.L39)/2
 541 003a 27       		.byte	(.L37-.L39)/2
 542 003b 27       		.byte	(.L37-.L39)/2
 543 003c 27       		.byte	(.L37-.L39)/2
 544 003d 1C       		.byte	(.L41-.L39)/2
 545 003e 10       		.byte	(.L40-.L39)/2
 546 003f 05       		.byte	(.L38-.L39)/2
 547              		.p2align 1
 548              	.L38:
 370:Middlewares/ST/STM32_USB_Device_Library/Class/CustomHID/Src/usbd_customhid.c ****           break;
 549              		.loc 1 370 11 is_stmt 1 view .LVU150
 370:Middlewares/ST/STM32_USB_Device_Library/Class/CustomHID/Src/usbd_customhid.c ****           break;
 550              		.loc 1 370 28 is_stmt 0 view .LVU151
 551 0040 8A78     		ldrb	r2, [r1, #2]	@ zero_extendqisi2
 370:Middlewares/ST/STM32_USB_Device_Library/Class/CustomHID/Src/usbd_customhid.c ****           break;
 552              		.loc 1 370 26 view .LVU152
 553 0042 1A64     		str	r2, [r3, #64]
 371:Middlewares/ST/STM32_USB_Device_Library/Class/CustomHID/Src/usbd_customhid.c **** 
 554              		.loc 1 371 11 is_stmt 1 view .LVU153
 357:Middlewares/ST/STM32_USB_Device_Library/Class/CustomHID/Src/usbd_customhid.c **** 
 555              		.loc 1 357 22 is_stmt 0 view .LVU154
 556 0044 0024     		movs	r4, #0
 371:Middlewares/ST/STM32_USB_Device_Library/Class/CustomHID/Src/usbd_customhid.c **** 
 557              		.loc 1 371 11 view .LVU155
 558 0046 79E0     		b	.L34
 559              	.L42:
 374:Middlewares/ST/STM32_USB_Device_Library/Class/CustomHID/Src/usbd_customhid.c ****           break;
 560              		.loc 1 374 11 is_stmt 1 view .LVU156
 374:Middlewares/ST/STM32_USB_Device_Library/Class/CustomHID/Src/usbd_customhid.c ****           break;
 561              		.loc 1 374 17 is_stmt 0 view .LVU157
 562 0048 0122     		movs	r2, #1
ARM GAS  C:\Users\Bence\AppData\Local\Temp\cc6pT357.s 			page 25


 563 004a 03F14001 		add	r1, r3, #64
 564              	.LVL46:
 374:Middlewares/ST/STM32_USB_Device_Library/Class/CustomHID/Src/usbd_customhid.c ****           break;
 565              		.loc 1 374 17 view .LVU158
 566 004e FFF7FEFF 		bl	USBD_CtlSendData
 567              	.LVL47:
 375:Middlewares/ST/STM32_USB_Device_Library/Class/CustomHID/Src/usbd_customhid.c **** 
 568              		.loc 1 375 11 is_stmt 1 view .LVU159
 357:Middlewares/ST/STM32_USB_Device_Library/Class/CustomHID/Src/usbd_customhid.c **** 
 569              		.loc 1 357 22 is_stmt 0 view .LVU160
 570 0052 0024     		movs	r4, #0
 375:Middlewares/ST/STM32_USB_Device_Library/Class/CustomHID/Src/usbd_customhid.c **** 
 571              		.loc 1 375 11 view .LVU161
 572 0054 72E0     		b	.L34
 573              	.LVL48:
 574              	.L40:
 378:Middlewares/ST/STM32_USB_Device_Library/Class/CustomHID/Src/usbd_customhid.c ****           break;
 575              		.loc 1 378 11 is_stmt 1 view .LVU162
 378:Middlewares/ST/STM32_USB_Device_Library/Class/CustomHID/Src/usbd_customhid.c ****           break;
 576              		.loc 1 378 42 is_stmt 0 view .LVU163
 577 0056 4A88     		ldrh	r2, [r1, #2]
 378:Middlewares/ST/STM32_USB_Device_Library/Class/CustomHID/Src/usbd_customhid.c ****           break;
 578              		.loc 1 378 29 view .LVU164
 579 0058 120A     		lsrs	r2, r2, #8
 378:Middlewares/ST/STM32_USB_Device_Library/Class/CustomHID/Src/usbd_customhid.c ****           break;
 580              		.loc 1 378 27 view .LVU165
 581 005a 5A64     		str	r2, [r3, #68]
 379:Middlewares/ST/STM32_USB_Device_Library/Class/CustomHID/Src/usbd_customhid.c **** 
 582              		.loc 1 379 11 is_stmt 1 view .LVU166
 357:Middlewares/ST/STM32_USB_Device_Library/Class/CustomHID/Src/usbd_customhid.c **** 
 583              		.loc 1 357 22 is_stmt 0 view .LVU167
 584 005c 0024     		movs	r4, #0
 379:Middlewares/ST/STM32_USB_Device_Library/Class/CustomHID/Src/usbd_customhid.c **** 
 585              		.loc 1 379 11 view .LVU168
 586 005e 6DE0     		b	.L34
 587              	.L43:
 382:Middlewares/ST/STM32_USB_Device_Library/Class/CustomHID/Src/usbd_customhid.c ****           break;
 588              		.loc 1 382 11 is_stmt 1 view .LVU169
 382:Middlewares/ST/STM32_USB_Device_Library/Class/CustomHID/Src/usbd_customhid.c ****           break;
 589              		.loc 1 382 17 is_stmt 0 view .LVU170
 590 0060 0122     		movs	r2, #1
 591 0062 03F14401 		add	r1, r3, #68
 592              	.LVL49:
 382:Middlewares/ST/STM32_USB_Device_Library/Class/CustomHID/Src/usbd_customhid.c ****           break;
 593              		.loc 1 382 17 view .LVU171
 594 0066 FFF7FEFF 		bl	USBD_CtlSendData
 595              	.LVL50:
 383:Middlewares/ST/STM32_USB_Device_Library/Class/CustomHID/Src/usbd_customhid.c **** 
 596              		.loc 1 383 11 is_stmt 1 view .LVU172
 357:Middlewares/ST/STM32_USB_Device_Library/Class/CustomHID/Src/usbd_customhid.c **** 
 597              		.loc 1 357 22 is_stmt 0 view .LVU173
 598 006a 0024     		movs	r4, #0
 383:Middlewares/ST/STM32_USB_Device_Library/Class/CustomHID/Src/usbd_customhid.c **** 
 599              		.loc 1 383 11 view .LVU174
 600 006c 66E0     		b	.L34
 601              	.LVL51:
 602              	.L41:
ARM GAS  C:\Users\Bence\AppData\Local\Temp\cc6pT357.s 			page 26


 386:Middlewares/ST/STM32_USB_Device_Library/Class/CustomHID/Src/usbd_customhid.c ****           (void)USBD_CtlPrepareRx(pdev, hhid->Report_buf,
 603              		.loc 1 386 11 is_stmt 1 view .LVU175
 386:Middlewares/ST/STM32_USB_Device_Library/Class/CustomHID/Src/usbd_customhid.c ****           (void)USBD_CtlPrepareRx(pdev, hhid->Report_buf,
 604              		.loc 1 386 35 is_stmt 0 view .LVU176
 605 006e 0122     		movs	r2, #1
 606 0070 DA64     		str	r2, [r3, #76]
 387:Middlewares/ST/STM32_USB_Device_Library/Class/CustomHID/Src/usbd_customhid.c ****                                   MIN(req->wLength, USBD_CUSTOMHID_OUTREPORT_BUF_SIZE));
 607              		.loc 1 387 11 is_stmt 1 view .LVU177
 388:Middlewares/ST/STM32_USB_Device_Library/Class/CustomHID/Src/usbd_customhid.c ****           break;
 608              		.loc 1 388 35 is_stmt 0 view .LVU178
 609 0072 CA88     		ldrh	r2, [r1, #6]
 387:Middlewares/ST/STM32_USB_Device_Library/Class/CustomHID/Src/usbd_customhid.c ****                                   MIN(req->wLength, USBD_CUSTOMHID_OUTREPORT_BUF_SIZE));
 610              		.loc 1 387 17 view .LVU179
 611 0074 402A     		cmp	r2, #64
 612 0076 28BF     		it	cs
 613 0078 4022     		movcs	r2, #64
 614 007a 1946     		mov	r1, r3
 615              	.LVL52:
 387:Middlewares/ST/STM32_USB_Device_Library/Class/CustomHID/Src/usbd_customhid.c ****                                   MIN(req->wLength, USBD_CUSTOMHID_OUTREPORT_BUF_SIZE));
 616              		.loc 1 387 17 view .LVU180
 617 007c FFF7FEFF 		bl	USBD_CtlPrepareRx
 618              	.LVL53:
 389:Middlewares/ST/STM32_USB_Device_Library/Class/CustomHID/Src/usbd_customhid.c **** 
 619              		.loc 1 389 11 is_stmt 1 view .LVU181
 357:Middlewares/ST/STM32_USB_Device_Library/Class/CustomHID/Src/usbd_customhid.c **** 
 620              		.loc 1 357 22 is_stmt 0 view .LVU182
 621 0080 0024     		movs	r4, #0
 389:Middlewares/ST/STM32_USB_Device_Library/Class/CustomHID/Src/usbd_customhid.c **** 
 622              		.loc 1 389 11 view .LVU183
 623 0082 5BE0     		b	.L34
 624              	.LVL54:
 625              	.L37:
 392:Middlewares/ST/STM32_USB_Device_Library/Class/CustomHID/Src/usbd_customhid.c ****           ret = USBD_FAIL;
 626              		.loc 1 392 11 is_stmt 1 view .LVU184
 627 0084 FFF7FEFF 		bl	USBD_CtlError
 628              	.LVL55:
 393:Middlewares/ST/STM32_USB_Device_Library/Class/CustomHID/Src/usbd_customhid.c ****           break;
 629              		.loc 1 393 11 view .LVU185
 394:Middlewares/ST/STM32_USB_Device_Library/Class/CustomHID/Src/usbd_customhid.c ****       }
 630              		.loc 1 394 11 view .LVU186
 393:Middlewares/ST/STM32_USB_Device_Library/Class/CustomHID/Src/usbd_customhid.c ****           break;
 631              		.loc 1 393 15 is_stmt 0 view .LVU187
 632 0088 0324     		movs	r4, #3
 394:Middlewares/ST/STM32_USB_Device_Library/Class/CustomHID/Src/usbd_customhid.c ****       }
 633              		.loc 1 394 11 view .LVU188
 634 008a 57E0     		b	.L34
 635              	.LVL56:
 636              	.L35:
 399:Middlewares/ST/STM32_USB_Device_Library/Class/CustomHID/Src/usbd_customhid.c ****       {
 637              		.loc 1 399 7 is_stmt 1 view .LVU189
 399:Middlewares/ST/STM32_USB_Device_Library/Class/CustomHID/Src/usbd_customhid.c ****       {
 638              		.loc 1 399 18 is_stmt 0 view .LVU190
 639 008c 4E78     		ldrb	r6, [r1, #1]	@ zero_extendqisi2
 640 008e 0B2E     		cmp	r6, #11
 641 0090 4DD8     		bhi	.L44
 642 0092 DFE806F0 		tbb	[pc, r6]
 643              	.L46:
ARM GAS  C:\Users\Bence\AppData\Local\Temp\cc6pT357.s 			page 27


 644 0096 06       		.byte	(.L49-.L46)/2
 645 0097 53       		.byte	(.L34-.L46)/2
 646 0098 4C       		.byte	(.L44-.L46)/2
 647 0099 4C       		.byte	(.L44-.L46)/2
 648 009a 4C       		.byte	(.L44-.L46)/2
 649 009b 4C       		.byte	(.L44-.L46)/2
 650 009c 16       		.byte	(.L48-.L46)/2
 651 009d 4C       		.byte	(.L44-.L46)/2
 652 009e 4C       		.byte	(.L44-.L46)/2
 653 009f 4C       		.byte	(.L44-.L46)/2
 654 00a0 31       		.byte	(.L47-.L46)/2
 655 00a1 40       		.byte	(.L45-.L46)/2
 656              		.p2align 1
 657              	.L49:
 402:Middlewares/ST/STM32_USB_Device_Library/Class/CustomHID/Src/usbd_customhid.c ****           {
 658              		.loc 1 402 11 is_stmt 1 view .LVU191
 402:Middlewares/ST/STM32_USB_Device_Library/Class/CustomHID/Src/usbd_customhid.c ****           {
 659              		.loc 1 402 19 is_stmt 0 view .LVU192
 660 00a2 90F89C32 		ldrb	r3, [r0, #668]	@ zero_extendqisi2
 661              	.LVL57:
 402:Middlewares/ST/STM32_USB_Device_Library/Class/CustomHID/Src/usbd_customhid.c ****           {
 662              		.loc 1 402 19 view .LVU193
 663 00a6 DBB2     		uxtb	r3, r3
 402:Middlewares/ST/STM32_USB_Device_Library/Class/CustomHID/Src/usbd_customhid.c ****           {
 664              		.loc 1 402 14 view .LVU194
 665 00a8 032B     		cmp	r3, #3
 666 00aa 03D0     		beq	.L58
 408:Middlewares/ST/STM32_USB_Device_Library/Class/CustomHID/Src/usbd_customhid.c ****             ret = USBD_FAIL;
 667              		.loc 1 408 13 is_stmt 1 view .LVU195
 668 00ac FFF7FEFF 		bl	USBD_CtlError
 669              	.LVL58:
 409:Middlewares/ST/STM32_USB_Device_Library/Class/CustomHID/Src/usbd_customhid.c ****           }
 670              		.loc 1 409 13 view .LVU196
 409:Middlewares/ST/STM32_USB_Device_Library/Class/CustomHID/Src/usbd_customhid.c ****           }
 671              		.loc 1 409 17 is_stmt 0 view .LVU197
 672 00b0 0324     		movs	r4, #3
 673 00b2 43E0     		b	.L34
 674              	.LVL59:
 675              	.L58:
 404:Middlewares/ST/STM32_USB_Device_Library/Class/CustomHID/Src/usbd_customhid.c ****           }
 676              		.loc 1 404 13 is_stmt 1 view .LVU198
 404:Middlewares/ST/STM32_USB_Device_Library/Class/CustomHID/Src/usbd_customhid.c ****           }
 677              		.loc 1 404 19 is_stmt 0 view .LVU199
 678 00b4 0222     		movs	r2, #2
 679 00b6 0DF10601 		add	r1, sp, #6
 680              	.LVL60:
 404:Middlewares/ST/STM32_USB_Device_Library/Class/CustomHID/Src/usbd_customhid.c ****           }
 681              		.loc 1 404 19 view .LVU200
 682 00ba FFF7FEFF 		bl	USBD_CtlSendData
 683              	.LVL61:
 357:Middlewares/ST/STM32_USB_Device_Library/Class/CustomHID/Src/usbd_customhid.c **** 
 684              		.loc 1 357 22 view .LVU201
 685 00be 3446     		mov	r4, r6
 686 00c0 3CE0     		b	.L34
 687              	.LVL62:
 688              	.L48:
 414:Middlewares/ST/STM32_USB_Device_Library/Class/CustomHID/Src/usbd_customhid.c ****           {
ARM GAS  C:\Users\Bence\AppData\Local\Temp\cc6pT357.s 			page 28


 689              		.loc 1 414 11 is_stmt 1 view .LVU202
 414:Middlewares/ST/STM32_USB_Device_Library/Class/CustomHID/Src/usbd_customhid.c ****           {
 690              		.loc 1 414 19 is_stmt 0 view .LVU203
 691 00c2 4B88     		ldrh	r3, [r1, #2]
 692              	.LVL63:
 414:Middlewares/ST/STM32_USB_Device_Library/Class/CustomHID/Src/usbd_customhid.c ****           {
 693              		.loc 1 414 34 view .LVU204
 694 00c4 1B0A     		lsrs	r3, r3, #8
 414:Middlewares/ST/STM32_USB_Device_Library/Class/CustomHID/Src/usbd_customhid.c ****           {
 695              		.loc 1 414 14 view .LVU205
 696 00c6 222B     		cmp	r3, #34
 697 00c8 06D0     		beq	.L59
 421:Middlewares/ST/STM32_USB_Device_Library/Class/CustomHID/Src/usbd_customhid.c ****             {
 698              		.loc 1 421 13 is_stmt 1 view .LVU206
 421:Middlewares/ST/STM32_USB_Device_Library/Class/CustomHID/Src/usbd_customhid.c ****             {
 699              		.loc 1 421 16 is_stmt 0 view .LVU207
 700 00ca 212B     		cmp	r3, #33
 701 00cc 0ED0     		beq	.L60
 355:Middlewares/ST/STM32_USB_Device_Library/Class/CustomHID/Src/usbd_customhid.c ****   uint16_t status_info = 0U;
 702              		.loc 1 355 13 view .LVU208
 703 00ce 0021     		movs	r1, #0
 704              	.LVL64:
 354:Middlewares/ST/STM32_USB_Device_Library/Class/CustomHID/Src/usbd_customhid.c ****   uint8_t  *pbuf = NULL;
 705              		.loc 1 354 12 view .LVU209
 706 00d0 0A46     		mov	r2, r1
 707              	.LVL65:
 708              	.L52:
 428:Middlewares/ST/STM32_USB_Device_Library/Class/CustomHID/Src/usbd_customhid.c ****           break;
 709              		.loc 1 428 11 is_stmt 1 view .LVU210
 428:Middlewares/ST/STM32_USB_Device_Library/Class/CustomHID/Src/usbd_customhid.c ****           break;
 710              		.loc 1 428 17 is_stmt 0 view .LVU211
 711 00d2 FFF7FEFF 		bl	USBD_CtlSendData
 712              	.LVL66:
 429:Middlewares/ST/STM32_USB_Device_Library/Class/CustomHID/Src/usbd_customhid.c **** 
 713              		.loc 1 429 11 is_stmt 1 view .LVU212
 714 00d6 31E0     		b	.L34
 715              	.LVL67:
 716              	.L59:
 416:Middlewares/ST/STM32_USB_Device_Library/Class/CustomHID/Src/usbd_customhid.c ****             pbuf = ((USBD_CUSTOM_HID_ItfTypeDef *)pdev->pUserData[pdev->classId])->pReport;
 717              		.loc 1 416 13 view .LVU213
 416:Middlewares/ST/STM32_USB_Device_Library/Class/CustomHID/Src/usbd_customhid.c ****             pbuf = ((USBD_CUSTOM_HID_ItfTypeDef *)pdev->pUserData[pdev->classId])->pReport;
 718              		.loc 1 416 19 is_stmt 0 view .LVU214
 719 00d8 CA88     		ldrh	r2, [r1, #6]
 416:Middlewares/ST/STM32_USB_Device_Library/Class/CustomHID/Src/usbd_customhid.c ****             pbuf = ((USBD_CUSTOM_HID_ItfTypeDef *)pdev->pUserData[pdev->classId])->pReport;
 720              		.loc 1 416 17 view .LVU215
 721 00da 212A     		cmp	r2, #33
 722 00dc 28BF     		it	cs
 723 00de 2122     		movcs	r2, #33
 724              	.LVL68:
 417:Middlewares/ST/STM32_USB_Device_Library/Class/CustomHID/Src/usbd_customhid.c ****           }
 725              		.loc 1 417 13 is_stmt 1 view .LVU216
 417:Middlewares/ST/STM32_USB_Device_Library/Class/CustomHID/Src/usbd_customhid.c ****           }
 726              		.loc 1 417 66 is_stmt 0 view .LVU217
 727 00e0 B035     		adds	r5, r5, #176
 728              	.LVL69:
 417:Middlewares/ST/STM32_USB_Device_Library/Class/CustomHID/Src/usbd_customhid.c ****           }
 729              		.loc 1 417 66 view .LVU218
ARM GAS  C:\Users\Bence\AppData\Local\Temp\cc6pT357.s 			page 29


 730 00e2 00EB8505 		add	r5, r0, r5, lsl #2
 731 00e6 6B68     		ldr	r3, [r5, #4]
 417:Middlewares/ST/STM32_USB_Device_Library/Class/CustomHID/Src/usbd_customhid.c ****           }
 732              		.loc 1 417 18 view .LVU219
 733 00e8 1968     		ldr	r1, [r3]
 734              	.LVL70:
 417:Middlewares/ST/STM32_USB_Device_Library/Class/CustomHID/Src/usbd_customhid.c ****           }
 735              		.loc 1 417 18 view .LVU220
 736 00ea F2E7     		b	.L52
 737              	.LVL71:
 738              	.L60:
 423:Middlewares/ST/STM32_USB_Device_Library/Class/CustomHID/Src/usbd_customhid.c ****               len = MIN(USB_CUSTOM_HID_DESC_SIZ, req->wLength);
 739              		.loc 1 423 15 is_stmt 1 view .LVU221
 424:Middlewares/ST/STM32_USB_Device_Library/Class/CustomHID/Src/usbd_customhid.c ****             }
 740              		.loc 1 424 15 view .LVU222
 424:Middlewares/ST/STM32_USB_Device_Library/Class/CustomHID/Src/usbd_customhid.c ****             }
 741              		.loc 1 424 21 is_stmt 0 view .LVU223
 742 00ec CA88     		ldrh	r2, [r1, #6]
 424:Middlewares/ST/STM32_USB_Device_Library/Class/CustomHID/Src/usbd_customhid.c ****             }
 743              		.loc 1 424 19 view .LVU224
 744 00ee 092A     		cmp	r2, #9
 745 00f0 28BF     		it	cs
 746 00f2 0922     		movcs	r2, #9
 747              	.LVL72:
 423:Middlewares/ST/STM32_USB_Device_Library/Class/CustomHID/Src/usbd_customhid.c ****               len = MIN(USB_CUSTOM_HID_DESC_SIZ, req->wLength);
 748              		.loc 1 423 20 view .LVU225
 749 00f4 1449     		ldr	r1, .L62
 750              	.LVL73:
 423:Middlewares/ST/STM32_USB_Device_Library/Class/CustomHID/Src/usbd_customhid.c ****               len = MIN(USB_CUSTOM_HID_DESC_SIZ, req->wLength);
 751              		.loc 1 423 20 view .LVU226
 752 00f6 ECE7     		b	.L52
 753              	.LVL74:
 754              	.L47:
 432:Middlewares/ST/STM32_USB_Device_Library/Class/CustomHID/Src/usbd_customhid.c ****           {
 755              		.loc 1 432 11 is_stmt 1 view .LVU227
 432:Middlewares/ST/STM32_USB_Device_Library/Class/CustomHID/Src/usbd_customhid.c ****           {
 756              		.loc 1 432 19 is_stmt 0 view .LVU228
 757 00f8 90F89C22 		ldrb	r2, [r0, #668]	@ zero_extendqisi2
 758 00fc D2B2     		uxtb	r2, r2
 432:Middlewares/ST/STM32_USB_Device_Library/Class/CustomHID/Src/usbd_customhid.c ****           {
 759              		.loc 1 432 14 view .LVU229
 760 00fe 032A     		cmp	r2, #3
 761 0100 03D0     		beq	.L61
 438:Middlewares/ST/STM32_USB_Device_Library/Class/CustomHID/Src/usbd_customhid.c ****             ret = USBD_FAIL;
 762              		.loc 1 438 13 is_stmt 1 view .LVU230
 763 0102 FFF7FEFF 		bl	USBD_CtlError
 764              	.LVL75:
 439:Middlewares/ST/STM32_USB_Device_Library/Class/CustomHID/Src/usbd_customhid.c ****           }
 765              		.loc 1 439 13 view .LVU231
 439:Middlewares/ST/STM32_USB_Device_Library/Class/CustomHID/Src/usbd_customhid.c ****           }
 766              		.loc 1 439 17 is_stmt 0 view .LVU232
 767 0106 0324     		movs	r4, #3
 768 0108 18E0     		b	.L34
 769              	.LVL76:
 770              	.L61:
 434:Middlewares/ST/STM32_USB_Device_Library/Class/CustomHID/Src/usbd_customhid.c ****           }
 771              		.loc 1 434 13 is_stmt 1 view .LVU233
ARM GAS  C:\Users\Bence\AppData\Local\Temp\cc6pT357.s 			page 30


 434:Middlewares/ST/STM32_USB_Device_Library/Class/CustomHID/Src/usbd_customhid.c ****           }
 772              		.loc 1 434 19 is_stmt 0 view .LVU234
 773 010a 0122     		movs	r2, #1
 774 010c 03F14801 		add	r1, r3, #72
 775              	.LVL77:
 434:Middlewares/ST/STM32_USB_Device_Library/Class/CustomHID/Src/usbd_customhid.c ****           }
 776              		.loc 1 434 19 view .LVU235
 777 0110 FFF7FEFF 		bl	USBD_CtlSendData
 778              	.LVL78:
 434:Middlewares/ST/STM32_USB_Device_Library/Class/CustomHID/Src/usbd_customhid.c ****           }
 779              		.loc 1 434 19 view .LVU236
 780 0114 12E0     		b	.L34
 781              	.LVL79:
 782              	.L45:
 444:Middlewares/ST/STM32_USB_Device_Library/Class/CustomHID/Src/usbd_customhid.c ****           {
 783              		.loc 1 444 11 is_stmt 1 view .LVU237
 444:Middlewares/ST/STM32_USB_Device_Library/Class/CustomHID/Src/usbd_customhid.c ****           {
 784              		.loc 1 444 19 is_stmt 0 view .LVU238
 785 0116 90F89C22 		ldrb	r2, [r0, #668]	@ zero_extendqisi2
 786 011a D2B2     		uxtb	r2, r2
 444:Middlewares/ST/STM32_USB_Device_Library/Class/CustomHID/Src/usbd_customhid.c ****           {
 787              		.loc 1 444 14 view .LVU239
 788 011c 032A     		cmp	r2, #3
 789 011e 02D1     		bne	.L54
 446:Middlewares/ST/STM32_USB_Device_Library/Class/CustomHID/Src/usbd_customhid.c ****           }
 790              		.loc 1 446 13 is_stmt 1 view .LVU240
 446:Middlewares/ST/STM32_USB_Device_Library/Class/CustomHID/Src/usbd_customhid.c ****           }
 791              		.loc 1 446 32 is_stmt 0 view .LVU241
 792 0120 8A78     		ldrb	r2, [r1, #2]	@ zero_extendqisi2
 446:Middlewares/ST/STM32_USB_Device_Library/Class/CustomHID/Src/usbd_customhid.c ****           }
 793              		.loc 1 446 30 view .LVU242
 794 0122 9A64     		str	r2, [r3, #72]
 795 0124 0AE0     		b	.L34
 796              	.L54:
 450:Middlewares/ST/STM32_USB_Device_Library/Class/CustomHID/Src/usbd_customhid.c ****             ret = USBD_FAIL;
 797              		.loc 1 450 13 is_stmt 1 view .LVU243
 798 0126 FFF7FEFF 		bl	USBD_CtlError
 799              	.LVL80:
 451:Middlewares/ST/STM32_USB_Device_Library/Class/CustomHID/Src/usbd_customhid.c ****           }
 800              		.loc 1 451 13 view .LVU244
 451:Middlewares/ST/STM32_USB_Device_Library/Class/CustomHID/Src/usbd_customhid.c ****           }
 801              		.loc 1 451 17 is_stmt 0 view .LVU245
 802 012a 0324     		movs	r4, #3
 803 012c 06E0     		b	.L34
 804              	.LVL81:
 805              	.L44:
 459:Middlewares/ST/STM32_USB_Device_Library/Class/CustomHID/Src/usbd_customhid.c ****           ret = USBD_FAIL;
 806              		.loc 1 459 11 is_stmt 1 view .LVU246
 807 012e FFF7FEFF 		bl	USBD_CtlError
 808              	.LVL82:
 460:Middlewares/ST/STM32_USB_Device_Library/Class/CustomHID/Src/usbd_customhid.c ****           break;
 809              		.loc 1 460 11 view .LVU247
 461:Middlewares/ST/STM32_USB_Device_Library/Class/CustomHID/Src/usbd_customhid.c ****       }
 810              		.loc 1 461 11 view .LVU248
 460:Middlewares/ST/STM32_USB_Device_Library/Class/CustomHID/Src/usbd_customhid.c ****           break;
 811              		.loc 1 460 15 is_stmt 0 view .LVU249
 812 0132 0324     		movs	r4, #3
ARM GAS  C:\Users\Bence\AppData\Local\Temp\cc6pT357.s 			page 31


 461:Middlewares/ST/STM32_USB_Device_Library/Class/CustomHID/Src/usbd_customhid.c ****       }
 813              		.loc 1 461 11 view .LVU250
 814 0134 02E0     		b	.L34
 815              	.LVL83:
 816              	.L36:
 466:Middlewares/ST/STM32_USB_Device_Library/Class/CustomHID/Src/usbd_customhid.c ****       ret = USBD_FAIL;
 817              		.loc 1 466 7 is_stmt 1 view .LVU251
 818 0136 FFF7FEFF 		bl	USBD_CtlError
 819              	.LVL84:
 467:Middlewares/ST/STM32_USB_Device_Library/Class/CustomHID/Src/usbd_customhid.c ****       break;
 820              		.loc 1 467 7 view .LVU252
 468:Middlewares/ST/STM32_USB_Device_Library/Class/CustomHID/Src/usbd_customhid.c ****   }
 821              		.loc 1 468 7 view .LVU253
 467:Middlewares/ST/STM32_USB_Device_Library/Class/CustomHID/Src/usbd_customhid.c ****       break;
 822              		.loc 1 467 11 is_stmt 0 view .LVU254
 823 013a 0324     		movs	r4, #3
 824              	.LVL85:
 825              	.L34:
 471:Middlewares/ST/STM32_USB_Device_Library/Class/CustomHID/Src/usbd_customhid.c **** 
 826              		.loc 1 471 1 view .LVU255
 827 013c 2046     		mov	r0, r4
 828 013e 02B0     		add	sp, sp, #8
 829              	.LCFI7:
 830              		.cfi_remember_state
 831              		.cfi_def_cfa_offset 16
 832              		@ sp needed
 833 0140 70BD     		pop	{r4, r5, r6, pc}
 834              	.LVL86:
 835              	.L55:
 836              	.LCFI8:
 837              		.cfi_restore_state
 361:Middlewares/ST/STM32_USB_Device_Library/Class/CustomHID/Src/usbd_customhid.c ****   }
 838              		.loc 1 361 12 view .LVU256
 839 0142 0324     		movs	r4, #3
 840 0144 FAE7     		b	.L34
 841              	.L63:
 842 0146 00BF     		.align	2
 843              	.L62:
 844 0148 00000000 		.word	.LANCHOR2
 845              		.cfi_endproc
 846              	.LFE136:
 848              		.section	.text.USBD_CUSTOM_HID_DeInit,"ax",%progbits
 849              		.align	1
 850              		.syntax unified
 851              		.thumb
 852              		.thumb_func
 854              	USBD_CUSTOM_HID_DeInit:
 855              	.LVL87:
 856              	.LFB135:
 312:Middlewares/ST/STM32_USB_Device_Library/Class/CustomHID/Src/usbd_customhid.c ****   UNUSED(cfgidx);
 857              		.loc 1 312 1 is_stmt 1 view -0
 858              		.cfi_startproc
 859              		@ args = 0, pretend = 0, frame = 0
 860              		@ frame_needed = 0, uses_anonymous_args = 0
 312:Middlewares/ST/STM32_USB_Device_Library/Class/CustomHID/Src/usbd_customhid.c ****   UNUSED(cfgidx);
 861              		.loc 1 312 1 is_stmt 0 view .LVU258
 862 0000 38B5     		push	{r3, r4, r5, lr}
ARM GAS  C:\Users\Bence\AppData\Local\Temp\cc6pT357.s 			page 32


 863              	.LCFI9:
 864              		.cfi_def_cfa_offset 16
 865              		.cfi_offset 3, -16
 866              		.cfi_offset 4, -12
 867              		.cfi_offset 5, -8
 868              		.cfi_offset 14, -4
 869 0002 0446     		mov	r4, r0
 313:Middlewares/ST/STM32_USB_Device_Library/Class/CustomHID/Src/usbd_customhid.c **** 
 870              		.loc 1 313 3 is_stmt 1 view .LVU259
 322:Middlewares/ST/STM32_USB_Device_Library/Class/CustomHID/Src/usbd_customhid.c ****   pdev->ep_in[CUSTOMHIDInEpAdd & 0xFU].is_used = 0U;
 871              		.loc 1 322 3 view .LVU260
 322:Middlewares/ST/STM32_USB_Device_Library/Class/CustomHID/Src/usbd_customhid.c ****   pdev->ep_in[CUSTOMHIDInEpAdd & 0xFU].is_used = 0U;
 872              		.loc 1 322 9 is_stmt 0 view .LVU261
 873 0004 8121     		movs	r1, #129
 874              	.LVL88:
 322:Middlewares/ST/STM32_USB_Device_Library/Class/CustomHID/Src/usbd_customhid.c ****   pdev->ep_in[CUSTOMHIDInEpAdd & 0xFU].is_used = 0U;
 875              		.loc 1 322 9 view .LVU262
 876 0006 FFF7FEFF 		bl	USBD_LL_CloseEP
 877              	.LVL89:
 323:Middlewares/ST/STM32_USB_Device_Library/Class/CustomHID/Src/usbd_customhid.c ****   pdev->ep_in[CUSTOMHIDInEpAdd & 0xFU].bInterval = 0U;
 878              		.loc 1 323 3 is_stmt 1 view .LVU263
 323:Middlewares/ST/STM32_USB_Device_Library/Class/CustomHID/Src/usbd_customhid.c ****   pdev->ep_in[CUSTOMHIDInEpAdd & 0xFU].bInterval = 0U;
 879              		.loc 1 323 48 is_stmt 0 view .LVU264
 880 000a 0025     		movs	r5, #0
 881 000c 2587     		strh	r5, [r4, #56]	@ movhi
 324:Middlewares/ST/STM32_USB_Device_Library/Class/CustomHID/Src/usbd_customhid.c **** 
 882              		.loc 1 324 3 is_stmt 1 view .LVU265
 324:Middlewares/ST/STM32_USB_Device_Library/Class/CustomHID/Src/usbd_customhid.c **** 
 883              		.loc 1 324 50 is_stmt 0 view .LVU266
 884 000e 6587     		strh	r5, [r4, #58]	@ movhi
 327:Middlewares/ST/STM32_USB_Device_Library/Class/CustomHID/Src/usbd_customhid.c ****   pdev->ep_out[CUSTOMHIDOutEpAdd & 0xFU].is_used = 0U;
 885              		.loc 1 327 3 is_stmt 1 view .LVU267
 327:Middlewares/ST/STM32_USB_Device_Library/Class/CustomHID/Src/usbd_customhid.c ****   pdev->ep_out[CUSTOMHIDOutEpAdd & 0xFU].is_used = 0U;
 886              		.loc 1 327 9 is_stmt 0 view .LVU268
 887 0010 0121     		movs	r1, #1
 888 0012 2046     		mov	r0, r4
 889 0014 FFF7FEFF 		bl	USBD_LL_CloseEP
 890              	.LVL90:
 328:Middlewares/ST/STM32_USB_Device_Library/Class/CustomHID/Src/usbd_customhid.c ****   pdev->ep_out[CUSTOMHIDOutEpAdd & 0xFU].bInterval = 0U;
 891              		.loc 1 328 3 is_stmt 1 view .LVU269
 328:Middlewares/ST/STM32_USB_Device_Library/Class/CustomHID/Src/usbd_customhid.c ****   pdev->ep_out[CUSTOMHIDOutEpAdd & 0xFU].bInterval = 0U;
 892              		.loc 1 328 50 is_stmt 0 view .LVU270
 893 0018 A4F87851 		strh	r5, [r4, #376]	@ movhi
 329:Middlewares/ST/STM32_USB_Device_Library/Class/CustomHID/Src/usbd_customhid.c **** 
 894              		.loc 1 329 3 is_stmt 1 view .LVU271
 329:Middlewares/ST/STM32_USB_Device_Library/Class/CustomHID/Src/usbd_customhid.c **** 
 895              		.loc 1 329 52 is_stmt 0 view .LVU272
 896 001c A4F87A51 		strh	r5, [r4, #378]	@ movhi
 332:Middlewares/ST/STM32_USB_Device_Library/Class/CustomHID/Src/usbd_customhid.c ****   {
 897              		.loc 1 332 3 is_stmt 1 view .LVU273
 332:Middlewares/ST/STM32_USB_Device_Library/Class/CustomHID/Src/usbd_customhid.c ****   {
 898              		.loc 1 332 33 is_stmt 0 view .LVU274
 899 0020 D4F8D432 		ldr	r3, [r4, #724]
 332:Middlewares/ST/STM32_USB_Device_Library/Class/CustomHID/Src/usbd_customhid.c ****   {
 900              		.loc 1 332 28 view .LVU275
 901 0024 03F1B002 		add	r2, r3, #176
 902 0028 54F82220 		ldr	r2, [r4, r2, lsl #2]
ARM GAS  C:\Users\Bence\AppData\Local\Temp\cc6pT357.s 			page 33


 332:Middlewares/ST/STM32_USB_Device_Library/Class/CustomHID/Src/usbd_customhid.c ****   {
 903              		.loc 1 332 6 view .LVU276
 904 002c 9AB1     		cbz	r2, .L65
 334:Middlewares/ST/STM32_USB_Device_Library/Class/CustomHID/Src/usbd_customhid.c ****     USBD_free(pdev->pClassDataCmsit[pdev->classId]);
 905              		.loc 1 334 5 is_stmt 1 view .LVU277
 334:Middlewares/ST/STM32_USB_Device_Library/Class/CustomHID/Src/usbd_customhid.c ****     USBD_free(pdev->pClassDataCmsit[pdev->classId]);
 906              		.loc 1 334 51 is_stmt 0 view .LVU278
 907 002e B033     		adds	r3, r3, #176
 908 0030 04EB8303 		add	r3, r4, r3, lsl #2
 909 0034 5B68     		ldr	r3, [r3, #4]
 334:Middlewares/ST/STM32_USB_Device_Library/Class/CustomHID/Src/usbd_customhid.c ****     USBD_free(pdev->pClassDataCmsit[pdev->classId]);
 910              		.loc 1 334 67 view .LVU279
 911 0036 9B68     		ldr	r3, [r3, #8]
 334:Middlewares/ST/STM32_USB_Device_Library/Class/CustomHID/Src/usbd_customhid.c ****     USBD_free(pdev->pClassDataCmsit[pdev->classId]);
 912              		.loc 1 334 6 view .LVU280
 913 0038 9847     		blx	r3
 914              	.LVL91:
 335:Middlewares/ST/STM32_USB_Device_Library/Class/CustomHID/Src/usbd_customhid.c ****     pdev->pClassDataCmsit[pdev->classId] = NULL;
 915              		.loc 1 335 5 is_stmt 1 view .LVU281
 335:Middlewares/ST/STM32_USB_Device_Library/Class/CustomHID/Src/usbd_customhid.c ****     pdev->pClassDataCmsit[pdev->classId] = NULL;
 916              		.loc 1 335 41 is_stmt 0 view .LVU282
 917 003a D4F8D432 		ldr	r3, [r4, #724]
 335:Middlewares/ST/STM32_USB_Device_Library/Class/CustomHID/Src/usbd_customhid.c ****     pdev->pClassDataCmsit[pdev->classId] = NULL;
 918              		.loc 1 335 5 view .LVU283
 919 003e B033     		adds	r3, r3, #176
 920 0040 54F82300 		ldr	r0, [r4, r3, lsl #2]
 921 0044 FFF7FEFF 		bl	USBD_static_free
 922              	.LVL92:
 336:Middlewares/ST/STM32_USB_Device_Library/Class/CustomHID/Src/usbd_customhid.c ****     pdev->pClassData = NULL;
 923              		.loc 1 336 5 is_stmt 1 view .LVU284
 336:Middlewares/ST/STM32_USB_Device_Library/Class/CustomHID/Src/usbd_customhid.c ****     pdev->pClassData = NULL;
 924              		.loc 1 336 31 is_stmt 0 view .LVU285
 925 0048 D4F8D432 		ldr	r3, [r4, #724]
 336:Middlewares/ST/STM32_USB_Device_Library/Class/CustomHID/Src/usbd_customhid.c ****     pdev->pClassData = NULL;
 926              		.loc 1 336 42 view .LVU286
 927 004c B033     		adds	r3, r3, #176
 928 004e 44F82350 		str	r5, [r4, r3, lsl #2]
 337:Middlewares/ST/STM32_USB_Device_Library/Class/CustomHID/Src/usbd_customhid.c ****   }
 929              		.loc 1 337 5 is_stmt 1 view .LVU287
 337:Middlewares/ST/STM32_USB_Device_Library/Class/CustomHID/Src/usbd_customhid.c ****   }
 930              		.loc 1 337 22 is_stmt 0 view .LVU288
 931 0052 C4F8BC52 		str	r5, [r4, #700]
 932              	.L65:
 340:Middlewares/ST/STM32_USB_Device_Library/Class/CustomHID/Src/usbd_customhid.c **** }
 933              		.loc 1 340 3 is_stmt 1 view .LVU289
 341:Middlewares/ST/STM32_USB_Device_Library/Class/CustomHID/Src/usbd_customhid.c **** 
 934              		.loc 1 341 1 is_stmt 0 view .LVU290
 935 0056 0020     		movs	r0, #0
 936 0058 38BD     		pop	{r3, r4, r5, pc}
 341:Middlewares/ST/STM32_USB_Device_Library/Class/CustomHID/Src/usbd_customhid.c **** 
 937              		.loc 1 341 1 view .LVU291
 938              		.cfi_endproc
 939              	.LFE135:
 941              		.section	.text.USBD_CUSTOM_HID_Init,"ax",%progbits
 942              		.align	1
 943              		.syntax unified
 944              		.thumb
ARM GAS  C:\Users\Bence\AppData\Local\Temp\cc6pT357.s 			page 34


 945              		.thumb_func
 947              	USBD_CUSTOM_HID_Init:
 948              	.LVL93:
 949              	.LFB134:
 249:Middlewares/ST/STM32_USB_Device_Library/Class/CustomHID/Src/usbd_customhid.c ****   UNUSED(cfgidx);
 950              		.loc 1 249 1 is_stmt 1 view -0
 951              		.cfi_startproc
 952              		@ args = 0, pretend = 0, frame = 0
 953              		@ frame_needed = 0, uses_anonymous_args = 0
 249:Middlewares/ST/STM32_USB_Device_Library/Class/CustomHID/Src/usbd_customhid.c ****   UNUSED(cfgidx);
 954              		.loc 1 249 1 is_stmt 0 view .LVU293
 955 0000 F8B5     		push	{r3, r4, r5, r6, r7, lr}
 956              	.LCFI10:
 957              		.cfi_def_cfa_offset 24
 958              		.cfi_offset 3, -24
 959              		.cfi_offset 4, -20
 960              		.cfi_offset 5, -16
 961              		.cfi_offset 6, -12
 962              		.cfi_offset 7, -8
 963              		.cfi_offset 14, -4
 964 0002 0446     		mov	r4, r0
 250:Middlewares/ST/STM32_USB_Device_Library/Class/CustomHID/Src/usbd_customhid.c ****   USBD_CUSTOM_HID_HandleTypeDef *hhid;
 965              		.loc 1 250 3 is_stmt 1 view .LVU294
 251:Middlewares/ST/STM32_USB_Device_Library/Class/CustomHID/Src/usbd_customhid.c **** 
 966              		.loc 1 251 3 view .LVU295
 253:Middlewares/ST/STM32_USB_Device_Library/Class/CustomHID/Src/usbd_customhid.c **** 
 967              		.loc 1 253 3 view .LVU296
 253:Middlewares/ST/STM32_USB_Device_Library/Class/CustomHID/Src/usbd_customhid.c **** 
 968              		.loc 1 253 43 is_stmt 0 view .LVU297
 969 0004 5420     		movs	r0, #84
 970              	.LVL94:
 253:Middlewares/ST/STM32_USB_Device_Library/Class/CustomHID/Src/usbd_customhid.c **** 
 971              		.loc 1 253 43 view .LVU298
 972 0006 FFF7FEFF 		bl	USBD_static_malloc
 973              	.LVL95:
 255:Middlewares/ST/STM32_USB_Device_Library/Class/CustomHID/Src/usbd_customhid.c ****   {
 974              		.loc 1 255 3 is_stmt 1 view .LVU299
 255:Middlewares/ST/STM32_USB_Device_Library/Class/CustomHID/Src/usbd_customhid.c ****   {
 975              		.loc 1 255 6 is_stmt 0 view .LVU300
 976 000a 80B3     		cbz	r0, .L73
 977 000c 0646     		mov	r6, r0
 261:Middlewares/ST/STM32_USB_Device_Library/Class/CustomHID/Src/usbd_customhid.c ****   pdev->pClassData = pdev->pClassDataCmsit[pdev->classId];
 978              		.loc 1 261 3 is_stmt 1 view .LVU301
 261:Middlewares/ST/STM32_USB_Device_Library/Class/CustomHID/Src/usbd_customhid.c ****   pdev->pClassData = pdev->pClassDataCmsit[pdev->classId];
 979              		.loc 1 261 29 is_stmt 0 view .LVU302
 980 000e D4F8D432 		ldr	r3, [r4, #724]
 261:Middlewares/ST/STM32_USB_Device_Library/Class/CustomHID/Src/usbd_customhid.c ****   pdev->pClassData = pdev->pClassDataCmsit[pdev->classId];
 981              		.loc 1 261 40 view .LVU303
 982 0012 B033     		adds	r3, r3, #176
 983 0014 44F82300 		str	r0, [r4, r3, lsl #2]
 262:Middlewares/ST/STM32_USB_Device_Library/Class/CustomHID/Src/usbd_customhid.c **** 
 984              		.loc 1 262 3 is_stmt 1 view .LVU304
 262:Middlewares/ST/STM32_USB_Device_Library/Class/CustomHID/Src/usbd_customhid.c **** 
 985              		.loc 1 262 20 is_stmt 0 view .LVU305
 986 0018 C4F8BC02 		str	r0, [r4, #700]
 270:Middlewares/ST/STM32_USB_Device_Library/Class/CustomHID/Src/usbd_customhid.c ****   {
 987              		.loc 1 270 3 is_stmt 1 view .LVU306
ARM GAS  C:\Users\Bence\AppData\Local\Temp\cc6pT357.s 			page 35


 270:Middlewares/ST/STM32_USB_Device_Library/Class/CustomHID/Src/usbd_customhid.c ****   {
 988              		.loc 1 270 11 is_stmt 0 view .LVU307
 989 001c 237C     		ldrb	r3, [r4, #16]	@ zero_extendqisi2
 270:Middlewares/ST/STM32_USB_Device_Library/Class/CustomHID/Src/usbd_customhid.c ****   {
 990              		.loc 1 270 6 view .LVU308
 991 001e 73BB     		cbnz	r3, .L70
 272:Middlewares/ST/STM32_USB_Device_Library/Class/CustomHID/Src/usbd_customhid.c ****     pdev->ep_out[CUSTOMHIDOutEpAdd & 0xFU].bInterval = CUSTOM_HID_HS_BINTERVAL;
 992              		.loc 1 272 5 is_stmt 1 view .LVU309
 272:Middlewares/ST/STM32_USB_Device_Library/Class/CustomHID/Src/usbd_customhid.c ****     pdev->ep_out[CUSTOMHIDOutEpAdd & 0xFU].bInterval = CUSTOM_HID_HS_BINTERVAL;
 993              		.loc 1 272 52 is_stmt 0 view .LVU310
 994 0020 0523     		movs	r3, #5
 995 0022 6387     		strh	r3, [r4, #58]	@ movhi
 273:Middlewares/ST/STM32_USB_Device_Library/Class/CustomHID/Src/usbd_customhid.c ****   }
 996              		.loc 1 273 5 is_stmt 1 view .LVU311
 273:Middlewares/ST/STM32_USB_Device_Library/Class/CustomHID/Src/usbd_customhid.c ****   }
 997              		.loc 1 273 54 is_stmt 0 view .LVU312
 998 0024 A4F87A31 		strh	r3, [r4, #378]	@ movhi
 999              	.L71:
 282:Middlewares/ST/STM32_USB_Device_Library/Class/CustomHID/Src/usbd_customhid.c ****                        CUSTOM_HID_EPIN_SIZE);
 1000              		.loc 1 282 3 is_stmt 1 view .LVU313
 282:Middlewares/ST/STM32_USB_Device_Library/Class/CustomHID/Src/usbd_customhid.c ****                        CUSTOM_HID_EPIN_SIZE);
 1001              		.loc 1 282 9 is_stmt 0 view .LVU314
 1002 0028 4023     		movs	r3, #64
 1003 002a 0322     		movs	r2, #3
 1004 002c 8121     		movs	r1, #129
 1005 002e 2046     		mov	r0, r4
 1006              	.LVL96:
 282:Middlewares/ST/STM32_USB_Device_Library/Class/CustomHID/Src/usbd_customhid.c ****                        CUSTOM_HID_EPIN_SIZE);
 1007              		.loc 1 282 9 view .LVU315
 1008 0030 FFF7FEFF 		bl	USBD_LL_OpenEP
 1009              	.LVL97:
 285:Middlewares/ST/STM32_USB_Device_Library/Class/CustomHID/Src/usbd_customhid.c **** 
 1010              		.loc 1 285 3 is_stmt 1 view .LVU316
 285:Middlewares/ST/STM32_USB_Device_Library/Class/CustomHID/Src/usbd_customhid.c **** 
 1011              		.loc 1 285 48 is_stmt 0 view .LVU317
 1012 0034 0127     		movs	r7, #1
 1013 0036 2787     		strh	r7, [r4, #56]	@ movhi
 288:Middlewares/ST/STM32_USB_Device_Library/Class/CustomHID/Src/usbd_customhid.c ****                        CUSTOM_HID_EPOUT_SIZE);
 1014              		.loc 1 288 3 is_stmt 1 view .LVU318
 288:Middlewares/ST/STM32_USB_Device_Library/Class/CustomHID/Src/usbd_customhid.c ****                        CUSTOM_HID_EPOUT_SIZE);
 1015              		.loc 1 288 9 is_stmt 0 view .LVU319
 1016 0038 4023     		movs	r3, #64
 1017 003a 0322     		movs	r2, #3
 1018 003c 3946     		mov	r1, r7
 1019 003e 2046     		mov	r0, r4
 1020 0040 FFF7FEFF 		bl	USBD_LL_OpenEP
 1021              	.LVL98:
 291:Middlewares/ST/STM32_USB_Device_Library/Class/CustomHID/Src/usbd_customhid.c **** 
 1022              		.loc 1 291 3 is_stmt 1 view .LVU320
 291:Middlewares/ST/STM32_USB_Device_Library/Class/CustomHID/Src/usbd_customhid.c **** 
 1023              		.loc 1 291 50 is_stmt 0 view .LVU321
 1024 0044 A4F87871 		strh	r7, [r4, #376]	@ movhi
 293:Middlewares/ST/STM32_USB_Device_Library/Class/CustomHID/Src/usbd_customhid.c **** 
 1025              		.loc 1 293 3 is_stmt 1 view .LVU322
 293:Middlewares/ST/STM32_USB_Device_Library/Class/CustomHID/Src/usbd_customhid.c **** 
 1026              		.loc 1 293 15 is_stmt 0 view .LVU323
 1027 0048 0025     		movs	r5, #0
ARM GAS  C:\Users\Bence\AppData\Local\Temp\cc6pT357.s 			page 36


 1028 004a 86F85050 		strb	r5, [r6, #80]
 295:Middlewares/ST/STM32_USB_Device_Library/Class/CustomHID/Src/usbd_customhid.c **** 
 1029              		.loc 1 295 3 is_stmt 1 view .LVU324
 295:Middlewares/ST/STM32_USB_Device_Library/Class/CustomHID/Src/usbd_customhid.c **** 
 1030              		.loc 1 295 54 is_stmt 0 view .LVU325
 1031 004e D4F8D432 		ldr	r3, [r4, #724]
 295:Middlewares/ST/STM32_USB_Device_Library/Class/CustomHID/Src/usbd_customhid.c **** 
 1032              		.loc 1 295 49 view .LVU326
 1033 0052 B033     		adds	r3, r3, #176
 1034 0054 04EB8303 		add	r3, r4, r3, lsl #2
 1035 0058 5B68     		ldr	r3, [r3, #4]
 295:Middlewares/ST/STM32_USB_Device_Library/Class/CustomHID/Src/usbd_customhid.c **** 
 1036              		.loc 1 295 65 view .LVU327
 1037 005a 5B68     		ldr	r3, [r3, #4]
 295:Middlewares/ST/STM32_USB_Device_Library/Class/CustomHID/Src/usbd_customhid.c **** 
 1038              		.loc 1 295 4 view .LVU328
 1039 005c 9847     		blx	r3
 1040              	.LVL99:
 298:Middlewares/ST/STM32_USB_Device_Library/Class/CustomHID/Src/usbd_customhid.c ****                                USBD_CUSTOMHID_OUTREPORT_BUF_SIZE);
 1041              		.loc 1 298 3 is_stmt 1 view .LVU329
 298:Middlewares/ST/STM32_USB_Device_Library/Class/CustomHID/Src/usbd_customhid.c ****                                USBD_CUSTOMHID_OUTREPORT_BUF_SIZE);
 1042              		.loc 1 298 9 is_stmt 0 view .LVU330
 1043 005e 4023     		movs	r3, #64
 1044 0060 3246     		mov	r2, r6
 1045 0062 3946     		mov	r1, r7
 1046 0064 2046     		mov	r0, r4
 1047 0066 FFF7FEFF 		bl	USBD_LL_PrepareReceive
 1048              	.LVL100:
 301:Middlewares/ST/STM32_USB_Device_Library/Class/CustomHID/Src/usbd_customhid.c **** }
 1049              		.loc 1 301 3 is_stmt 1 view .LVU331
 301:Middlewares/ST/STM32_USB_Device_Library/Class/CustomHID/Src/usbd_customhid.c **** }
 1050              		.loc 1 301 10 is_stmt 0 view .LVU332
 1051 006a 2846     		mov	r0, r5
 1052              	.LVL101:
 1053              	.L69:
 302:Middlewares/ST/STM32_USB_Device_Library/Class/CustomHID/Src/usbd_customhid.c **** 
 1054              		.loc 1 302 1 view .LVU333
 1055 006c F8BD     		pop	{r3, r4, r5, r6, r7, pc}
 1056              	.LVL102:
 1057              	.L73:
 257:Middlewares/ST/STM32_USB_Device_Library/Class/CustomHID/Src/usbd_customhid.c ****     return (uint8_t)USBD_EMEM;
 1058              		.loc 1 257 5 is_stmt 1 view .LVU334
 257:Middlewares/ST/STM32_USB_Device_Library/Class/CustomHID/Src/usbd_customhid.c ****     return (uint8_t)USBD_EMEM;
 1059              		.loc 1 257 31 is_stmt 0 view .LVU335
 1060 006e D4F8D432 		ldr	r3, [r4, #724]
 257:Middlewares/ST/STM32_USB_Device_Library/Class/CustomHID/Src/usbd_customhid.c ****     return (uint8_t)USBD_EMEM;
 1061              		.loc 1 257 42 view .LVU336
 1062 0072 B033     		adds	r3, r3, #176
 1063 0074 0022     		movs	r2, #0
 1064 0076 44F82320 		str	r2, [r4, r3, lsl #2]
 258:Middlewares/ST/STM32_USB_Device_Library/Class/CustomHID/Src/usbd_customhid.c ****   }
 1065              		.loc 1 258 5 is_stmt 1 view .LVU337
 258:Middlewares/ST/STM32_USB_Device_Library/Class/CustomHID/Src/usbd_customhid.c ****   }
 1066              		.loc 1 258 12 is_stmt 0 view .LVU338
 1067 007a 0220     		movs	r0, #2
 1068              	.LVL103:
 258:Middlewares/ST/STM32_USB_Device_Library/Class/CustomHID/Src/usbd_customhid.c ****   }
ARM GAS  C:\Users\Bence\AppData\Local\Temp\cc6pT357.s 			page 37


 1069              		.loc 1 258 12 view .LVU339
 1070 007c F6E7     		b	.L69
 1071              	.LVL104:
 1072              	.L70:
 277:Middlewares/ST/STM32_USB_Device_Library/Class/CustomHID/Src/usbd_customhid.c ****     pdev->ep_out[CUSTOMHIDOutEpAdd & 0xFU].bInterval = CUSTOM_HID_FS_BINTERVAL;
 1073              		.loc 1 277 5 is_stmt 1 view .LVU340
 277:Middlewares/ST/STM32_USB_Device_Library/Class/CustomHID/Src/usbd_customhid.c ****     pdev->ep_out[CUSTOMHIDOutEpAdd & 0xFU].bInterval = CUSTOM_HID_FS_BINTERVAL;
 1074              		.loc 1 277 52 is_stmt 0 view .LVU341
 1075 007e 0523     		movs	r3, #5
 1076 0080 6387     		strh	r3, [r4, #58]	@ movhi
 278:Middlewares/ST/STM32_USB_Device_Library/Class/CustomHID/Src/usbd_customhid.c ****   }
 1077              		.loc 1 278 5 is_stmt 1 view .LVU342
 278:Middlewares/ST/STM32_USB_Device_Library/Class/CustomHID/Src/usbd_customhid.c ****   }
 1078              		.loc 1 278 54 is_stmt 0 view .LVU343
 1079 0082 A4F87A31 		strh	r3, [r4, #378]	@ movhi
 1080 0086 CFE7     		b	.L71
 1081              		.cfi_endproc
 1082              	.LFE134:
 1084              		.section	.text.USBD_CUSTOM_HID_SendReport,"ax",%progbits
 1085              		.align	1
 1086              		.global	USBD_CUSTOM_HID_SendReport
 1087              		.syntax unified
 1088              		.thumb
 1089              		.thumb_func
 1091              	USBD_CUSTOM_HID_SendReport:
 1092              	.LVL105:
 1093              	.LFB137:
 482:Middlewares/ST/STM32_USB_Device_Library/Class/CustomHID/Src/usbd_customhid.c ****   USBD_CUSTOM_HID_HandleTypeDef *hhid;
 1094              		.loc 1 482 1 is_stmt 1 view -0
 1095              		.cfi_startproc
 1096              		@ args = 0, pretend = 0, frame = 0
 1097              		@ frame_needed = 0, uses_anonymous_args = 0
 482:Middlewares/ST/STM32_USB_Device_Library/Class/CustomHID/Src/usbd_customhid.c ****   USBD_CUSTOM_HID_HandleTypeDef *hhid;
 1098              		.loc 1 482 1 is_stmt 0 view .LVU345
 1099 0000 10B5     		push	{r4, lr}
 1100              	.LCFI11:
 1101              		.cfi_def_cfa_offset 8
 1102              		.cfi_offset 4, -8
 1103              		.cfi_offset 14, -4
 483:Middlewares/ST/STM32_USB_Device_Library/Class/CustomHID/Src/usbd_customhid.c **** 
 1104              		.loc 1 483 3 is_stmt 1 view .LVU346
 485:Middlewares/ST/STM32_USB_Device_Library/Class/CustomHID/Src/usbd_customhid.c ****   {
 1105              		.loc 1 485 3 view .LVU347
 485:Middlewares/ST/STM32_USB_Device_Library/Class/CustomHID/Src/usbd_customhid.c ****   {
 1106              		.loc 1 485 28 is_stmt 0 view .LVU348
 1107 0002 D0F8D432 		ldr	r3, [r0, #724]
 1108 0006 03F1B00C 		add	ip, r3, #176
 1109 000a 50F82C30 		ldr	r3, [r0, ip, lsl #2]
 485:Middlewares/ST/STM32_USB_Device_Library/Class/CustomHID/Src/usbd_customhid.c ****   {
 1110              		.loc 1 485 6 view .LVU349
 1111 000e C3B1     		cbz	r3, .L76
 495:Middlewares/ST/STM32_USB_Device_Library/Class/CustomHID/Src/usbd_customhid.c **** 
 1112              		.loc 1 495 3 is_stmt 1 view .LVU350
 1113              	.LVL106:
 497:Middlewares/ST/STM32_USB_Device_Library/Class/CustomHID/Src/usbd_customhid.c ****   {
 1114              		.loc 1 497 3 view .LVU351
 497:Middlewares/ST/STM32_USB_Device_Library/Class/CustomHID/Src/usbd_customhid.c ****   {
ARM GAS  C:\Users\Bence\AppData\Local\Temp\cc6pT357.s 			page 38


 1115              		.loc 1 497 11 is_stmt 0 view .LVU352
 1116 0010 90F89CC2 		ldrb	ip, [r0, #668]	@ zero_extendqisi2
 1117 0014 5FFA8CFC 		uxtb	ip, ip
 497:Middlewares/ST/STM32_USB_Device_Library/Class/CustomHID/Src/usbd_customhid.c ****   {
 1118              		.loc 1 497 6 view .LVU353
 1119 0018 BCF1030F 		cmp	ip, #3
 1120 001c 02D0     		beq	.L80
 509:Middlewares/ST/STM32_USB_Device_Library/Class/CustomHID/Src/usbd_customhid.c **** }
 1121              		.loc 1 509 10 view .LVU354
 1122 001e 0024     		movs	r4, #0
 1123              	.LVL107:
 1124              	.L75:
 510:Middlewares/ST/STM32_USB_Device_Library/Class/CustomHID/Src/usbd_customhid.c **** #ifndef USE_USBD_COMPOSITE
 1125              		.loc 1 510 1 view .LVU355
 1126 0020 2046     		mov	r0, r4
 1127 0022 10BD     		pop	{r4, pc}
 1128              	.LVL108:
 1129              	.L80:
 499:Middlewares/ST/STM32_USB_Device_Library/Class/CustomHID/Src/usbd_customhid.c ****     {
 1130              		.loc 1 499 5 is_stmt 1 view .LVU356
 499:Middlewares/ST/STM32_USB_Device_Library/Class/CustomHID/Src/usbd_customhid.c ****     {
 1131              		.loc 1 499 13 is_stmt 0 view .LVU357
 1132 0024 93F85040 		ldrb	r4, [r3, #80]	@ zero_extendqisi2
 499:Middlewares/ST/STM32_USB_Device_Library/Class/CustomHID/Src/usbd_customhid.c ****     {
 1133              		.loc 1 499 8 view .LVU358
 1134 0028 0CB1     		cbz	r4, .L81
 506:Middlewares/ST/STM32_USB_Device_Library/Class/CustomHID/Src/usbd_customhid.c ****     }
 1135              		.loc 1 506 14 view .LVU359
 1136 002a 0124     		movs	r4, #1
 1137 002c F8E7     		b	.L75
 1138              	.L81:
 501:Middlewares/ST/STM32_USB_Device_Library/Class/CustomHID/Src/usbd_customhid.c ****       (void)USBD_LL_Transmit(pdev, CUSTOMHIDInEpAdd, report, len);
 1139              		.loc 1 501 7 is_stmt 1 view .LVU360
 501:Middlewares/ST/STM32_USB_Device_Library/Class/CustomHID/Src/usbd_customhid.c ****       (void)USBD_LL_Transmit(pdev, CUSTOMHIDInEpAdd, report, len);
 1140              		.loc 1 501 19 is_stmt 0 view .LVU361
 1141 002e 4FF0010C 		mov	ip, #1
 1142 0032 83F850C0 		strb	ip, [r3, #80]
 502:Middlewares/ST/STM32_USB_Device_Library/Class/CustomHID/Src/usbd_customhid.c ****     }
 1143              		.loc 1 502 7 is_stmt 1 view .LVU362
 502:Middlewares/ST/STM32_USB_Device_Library/Class/CustomHID/Src/usbd_customhid.c ****     }
 1144              		.loc 1 502 13 is_stmt 0 view .LVU363
 1145 0036 1346     		mov	r3, r2
 1146              	.LVL109:
 502:Middlewares/ST/STM32_USB_Device_Library/Class/CustomHID/Src/usbd_customhid.c ****     }
 1147              		.loc 1 502 13 view .LVU364
 1148 0038 0A46     		mov	r2, r1
 1149              	.LVL110:
 502:Middlewares/ST/STM32_USB_Device_Library/Class/CustomHID/Src/usbd_customhid.c ****     }
 1150              		.loc 1 502 13 view .LVU365
 1151 003a 8121     		movs	r1, #129
 1152              	.LVL111:
 502:Middlewares/ST/STM32_USB_Device_Library/Class/CustomHID/Src/usbd_customhid.c ****     }
 1153              		.loc 1 502 13 view .LVU366
 1154 003c FFF7FEFF 		bl	USBD_LL_Transmit
 1155              	.LVL112:
 502:Middlewares/ST/STM32_USB_Device_Library/Class/CustomHID/Src/usbd_customhid.c ****     }
 1156              		.loc 1 502 13 view .LVU367
ARM GAS  C:\Users\Bence\AppData\Local\Temp\cc6pT357.s 			page 39


 1157 0040 EEE7     		b	.L75
 1158              	.LVL113:
 1159              	.L76:
 487:Middlewares/ST/STM32_USB_Device_Library/Class/CustomHID/Src/usbd_customhid.c ****   }
 1160              		.loc 1 487 12 view .LVU368
 1161 0042 0324     		movs	r4, #3
 1162 0044 ECE7     		b	.L75
 1163              		.cfi_endproc
 1164              	.LFE137:
 1166              		.section	.text.USBD_CUSTOM_HID_ReceivePacket,"ax",%progbits
 1167              		.align	1
 1168              		.global	USBD_CUSTOM_HID_ReceivePacket
 1169              		.syntax unified
 1170              		.thumb
 1171              		.thumb_func
 1173              	USBD_CUSTOM_HID_ReceivePacket:
 1174              	.LVL114:
 1175              	.LFB143:
 649:Middlewares/ST/STM32_USB_Device_Library/Class/CustomHID/Src/usbd_customhid.c ****   USBD_CUSTOM_HID_HandleTypeDef *hhid;
 1176              		.loc 1 649 1 is_stmt 1 view -0
 1177              		.cfi_startproc
 1178              		@ args = 0, pretend = 0, frame = 0
 1179              		@ frame_needed = 0, uses_anonymous_args = 0
 649:Middlewares/ST/STM32_USB_Device_Library/Class/CustomHID/Src/usbd_customhid.c ****   USBD_CUSTOM_HID_HandleTypeDef *hhid;
 1180              		.loc 1 649 1 is_stmt 0 view .LVU370
 1181 0000 08B5     		push	{r3, lr}
 1182              	.LCFI12:
 1183              		.cfi_def_cfa_offset 8
 1184              		.cfi_offset 3, -8
 1185              		.cfi_offset 14, -4
 650:Middlewares/ST/STM32_USB_Device_Library/Class/CustomHID/Src/usbd_customhid.c **** 
 1186              		.loc 1 650 3 is_stmt 1 view .LVU371
 652:Middlewares/ST/STM32_USB_Device_Library/Class/CustomHID/Src/usbd_customhid.c ****   {
 1187              		.loc 1 652 3 view .LVU372
 652:Middlewares/ST/STM32_USB_Device_Library/Class/CustomHID/Src/usbd_customhid.c ****   {
 1188              		.loc 1 652 33 is_stmt 0 view .LVU373
 1189 0002 D0F8D432 		ldr	r3, [r0, #724]
 652:Middlewares/ST/STM32_USB_Device_Library/Class/CustomHID/Src/usbd_customhid.c ****   {
 1190              		.loc 1 652 28 view .LVU374
 1191 0006 B033     		adds	r3, r3, #176
 1192 0008 50F82320 		ldr	r2, [r0, r3, lsl #2]
 652:Middlewares/ST/STM32_USB_Device_Library/Class/CustomHID/Src/usbd_customhid.c ****   {
 1193              		.loc 1 652 6 view .LVU375
 1194 000c 2AB1     		cbz	r2, .L84
 662:Middlewares/ST/STM32_USB_Device_Library/Class/CustomHID/Src/usbd_customhid.c **** 
 1195              		.loc 1 662 3 is_stmt 1 view .LVU376
 1196              	.LVL115:
 665:Middlewares/ST/STM32_USB_Device_Library/Class/CustomHID/Src/usbd_customhid.c ****                                USBD_CUSTOMHID_OUTREPORT_BUF_SIZE);
 1197              		.loc 1 665 3 view .LVU377
 665:Middlewares/ST/STM32_USB_Device_Library/Class/CustomHID/Src/usbd_customhid.c ****                                USBD_CUSTOMHID_OUTREPORT_BUF_SIZE);
 1198              		.loc 1 665 9 is_stmt 0 view .LVU378
 1199 000e 4023     		movs	r3, #64
 1200 0010 0121     		movs	r1, #1
 1201 0012 FFF7FEFF 		bl	USBD_LL_PrepareReceive
 1202              	.LVL116:
 668:Middlewares/ST/STM32_USB_Device_Library/Class/CustomHID/Src/usbd_customhid.c **** }
 1203              		.loc 1 668 3 is_stmt 1 view .LVU379
ARM GAS  C:\Users\Bence\AppData\Local\Temp\cc6pT357.s 			page 40


 668:Middlewares/ST/STM32_USB_Device_Library/Class/CustomHID/Src/usbd_customhid.c **** }
 1204              		.loc 1 668 10 is_stmt 0 view .LVU380
 1205 0016 0020     		movs	r0, #0
 1206              	.L83:
 669:Middlewares/ST/STM32_USB_Device_Library/Class/CustomHID/Src/usbd_customhid.c **** 
 1207              		.loc 1 669 1 view .LVU381
 1208 0018 08BD     		pop	{r3, pc}
 1209              	.LVL117:
 1210              	.L84:
 654:Middlewares/ST/STM32_USB_Device_Library/Class/CustomHID/Src/usbd_customhid.c ****   }
 1211              		.loc 1 654 12 view .LVU382
 1212 001a 0320     		movs	r0, #3
 1213              	.LVL118:
 654:Middlewares/ST/STM32_USB_Device_Library/Class/CustomHID/Src/usbd_customhid.c ****   }
 1214              		.loc 1 654 12 view .LVU383
 1215 001c FCE7     		b	.L83
 1216              		.cfi_endproc
 1217              	.LFE143:
 1219              		.section	.text.USBD_CUSTOM_HID_RegisterInterface,"ax",%progbits
 1220              		.align	1
 1221              		.global	USBD_CUSTOM_HID_RegisterInterface
 1222              		.syntax unified
 1223              		.thumb
 1224              		.thumb_func
 1226              	USBD_CUSTOM_HID_RegisterInterface:
 1227              	.LVL119:
 1228              	.LFB146:
 709:Middlewares/ST/STM32_USB_Device_Library/Class/CustomHID/Src/usbd_customhid.c **** #endif /* USE_USBD_COMPOSITE  */
 710:Middlewares/ST/STM32_USB_Device_Library/Class/CustomHID/Src/usbd_customhid.c **** /**
 711:Middlewares/ST/STM32_USB_Device_Library/Class/CustomHID/Src/usbd_customhid.c ****   * @brief  USBD_CUSTOM_HID_RegisterInterface
 712:Middlewares/ST/STM32_USB_Device_Library/Class/CustomHID/Src/usbd_customhid.c ****   * @param  pdev: device instance
 713:Middlewares/ST/STM32_USB_Device_Library/Class/CustomHID/Src/usbd_customhid.c ****   * @param  fops: CUSTOMHID Interface callback
 714:Middlewares/ST/STM32_USB_Device_Library/Class/CustomHID/Src/usbd_customhid.c ****   * @retval status
 715:Middlewares/ST/STM32_USB_Device_Library/Class/CustomHID/Src/usbd_customhid.c ****   */
 716:Middlewares/ST/STM32_USB_Device_Library/Class/CustomHID/Src/usbd_customhid.c **** uint8_t USBD_CUSTOM_HID_RegisterInterface(USBD_HandleTypeDef *pdev,
 717:Middlewares/ST/STM32_USB_Device_Library/Class/CustomHID/Src/usbd_customhid.c ****                                           USBD_CUSTOM_HID_ItfTypeDef *fops)
 718:Middlewares/ST/STM32_USB_Device_Library/Class/CustomHID/Src/usbd_customhid.c **** {
 1229              		.loc 1 718 1 is_stmt 1 view -0
 1230              		.cfi_startproc
 1231              		@ args = 0, pretend = 0, frame = 0
 1232              		@ frame_needed = 0, uses_anonymous_args = 0
 1233              		@ link register save eliminated.
 719:Middlewares/ST/STM32_USB_Device_Library/Class/CustomHID/Src/usbd_customhid.c ****   if (fops == NULL)
 1234              		.loc 1 719 3 view .LVU385
 1235              		.loc 1 719 6 is_stmt 0 view .LVU386
 1236 0000 39B1     		cbz	r1, .L88
 720:Middlewares/ST/STM32_USB_Device_Library/Class/CustomHID/Src/usbd_customhid.c ****   {
 721:Middlewares/ST/STM32_USB_Device_Library/Class/CustomHID/Src/usbd_customhid.c ****     return (uint8_t)USBD_FAIL;
 722:Middlewares/ST/STM32_USB_Device_Library/Class/CustomHID/Src/usbd_customhid.c ****   }
 723:Middlewares/ST/STM32_USB_Device_Library/Class/CustomHID/Src/usbd_customhid.c **** 
 724:Middlewares/ST/STM32_USB_Device_Library/Class/CustomHID/Src/usbd_customhid.c ****   pdev->pUserData[pdev->classId] = fops;
 1237              		.loc 1 724 3 is_stmt 1 view .LVU387
 1238              		.loc 1 724 23 is_stmt 0 view .LVU388
 1239 0002 D0F8D432 		ldr	r3, [r0, #724]
 1240              		.loc 1 724 34 view .LVU389
 1241 0006 B033     		adds	r3, r3, #176
 1242 0008 00EB8300 		add	r0, r0, r3, lsl #2
ARM GAS  C:\Users\Bence\AppData\Local\Temp\cc6pT357.s 			page 41


 1243              	.LVL120:
 1244              		.loc 1 724 34 view .LVU390
 1245 000c 4160     		str	r1, [r0, #4]
 725:Middlewares/ST/STM32_USB_Device_Library/Class/CustomHID/Src/usbd_customhid.c **** 
 726:Middlewares/ST/STM32_USB_Device_Library/Class/CustomHID/Src/usbd_customhid.c ****   return (uint8_t)USBD_OK;
 1246              		.loc 1 726 3 is_stmt 1 view .LVU391
 1247              		.loc 1 726 10 is_stmt 0 view .LVU392
 1248 000e 0020     		movs	r0, #0
 1249 0010 7047     		bx	lr
 1250              	.LVL121:
 1251              	.L88:
 721:Middlewares/ST/STM32_USB_Device_Library/Class/CustomHID/Src/usbd_customhid.c ****   }
 1252              		.loc 1 721 12 view .LVU393
 1253 0012 0320     		movs	r0, #3
 1254              	.LVL122:
 727:Middlewares/ST/STM32_USB_Device_Library/Class/CustomHID/Src/usbd_customhid.c **** }
 1255              		.loc 1 727 1 view .LVU394
 1256 0014 7047     		bx	lr
 1257              		.cfi_endproc
 1258              	.LFE146:
 1260              		.global	USBD_CUSTOM_HID
 1261              		.section	.data.USBD_CUSTOM_HID,"aw"
 1262              		.align	2
 1265              	USBD_CUSTOM_HID:
 1266 0000 00000000 		.word	USBD_CUSTOM_HID_Init
 1267 0004 00000000 		.word	USBD_CUSTOM_HID_DeInit
 1268 0008 00000000 		.word	USBD_CUSTOM_HID_Setup
 1269 000c 00000000 		.word	0
 1270 0010 00000000 		.word	USBD_CUSTOM_HID_EP0_RxReady
 1271 0014 00000000 		.word	USBD_CUSTOM_HID_DataIn
 1272 0018 00000000 		.word	USBD_CUSTOM_HID_DataOut
 1273 001c 00000000 		.word	0
 1274 0020 00000000 		.word	0
 1275 0024 00000000 		.word	0
 1276 0028 00000000 		.word	USBD_CUSTOM_HID_GetHSCfgDesc
 1277 002c 00000000 		.word	USBD_CUSTOM_HID_GetFSCfgDesc
 1278 0030 00000000 		.word	USBD_CUSTOM_HID_GetOtherSpeedCfgDesc
 1279 0034 00000000 		.word	USBD_CUSTOM_HID_GetDeviceQualifierDesc
 1280              		.section	.data.USBD_CUSTOM_HID_CfgDesc,"aw"
 1281              		.align	2
 1282              		.set	.LANCHOR1,. + 0
 1285              	USBD_CUSTOM_HID_CfgDesc:
 1286 0000 09022900 		.ascii	"\011\002)\000\001\001\000\3002\011\004\000\000\002\003"
 1286      010100C0 
 1286      32090400 
 1286      000203
 1287 000f 00000009 		.ascii	"\000\000\000\011!\021\001\000\001\"!\000\007\005\201"
 1287      21110100 
 1287      01222100 
 1287      070581
 1288 001e 03400001 		.ascii	"\003@\000\001\007\005\001\003@\000\001"
 1288      07050103 
 1288      400001
 1289              		.section	.data.USBD_CUSTOM_HID_Desc,"aw"
 1290              		.align	2
 1291              		.set	.LANCHOR2,. + 0
 1294              	USBD_CUSTOM_HID_Desc:
ARM GAS  C:\Users\Bence\AppData\Local\Temp\cc6pT357.s 			page 42


 1295 0000 09211101 		.ascii	"\011!\021\001\000\001\"!\000"
 1295      00012221 
 1295      00
 1296              		.section	.data.USBD_CUSTOM_HID_DeviceQualifierDesc,"aw"
 1297              		.align	2
 1298              		.set	.LANCHOR0,. + 0
 1301              	USBD_CUSTOM_HID_DeviceQualifierDesc:
 1302 0000 0A060002 		.ascii	"\012\006\000\002\000\000\000@\001\000"
 1302      00000040 
 1302      0100
 1303              		.text
 1304              	.Letext0:
 1305              		.file 2 "c:\\users\\bence\\.vscode\\extensions\\buzzyelectronics.stm-helper-1.3.0\\armgcc\\arm-non
 1306              		.file 3 "c:\\users\\bence\\.vscode\\extensions\\buzzyelectronics.stm-helper-1.3.0\\armgcc\\arm-non
 1307              		.file 4 "Middlewares/ST/STM32_USB_Device_Library/Core/Inc/usbd_def.h"
 1308              		.file 5 "Middlewares/ST/STM32_USB_Device_Library/Class/CustomHID/Inc/usbd_customhid.h"
 1309              		.file 6 "Middlewares/ST/STM32_USB_Device_Library/Core/Inc/usbd_core.h"
 1310              		.file 7 "Middlewares/ST/STM32_USB_Device_Library/Core/Inc/usbd_ioreq.h"
 1311              		.file 8 "Middlewares/ST/STM32_USB_Device_Library/Core/Inc/usbd_ctlreq.h"
 1312              		.file 9 "USB_DEVICE/Target/usbd_conf.h"
ARM GAS  C:\Users\Bence\AppData\Local\Temp\cc6pT357.s 			page 43

