ARM GAS  C:\Users\Bence\AppData\Local\Temp\cc1gxkVg.s 			page 1


   1              		.cpu cortex-m4
   2              		.arch armv7e-m
   3              		.fpu fpv4-sp-d16
   4              		.eabi_attribute 27, 1
   5              		.eabi_attribute 28, 1
   6              		.eabi_attribute 20, 1
   7              		.eabi_attribute 21, 1
   8              		.eabi_attribute 23, 3
   9              		.eabi_attribute 24, 1
  10              		.eabi_attribute 25, 1
  11              		.eabi_attribute 26, 1
  12              		.eabi_attribute 30, 1
  13              		.eabi_attribute 34, 1
  14              		.eabi_attribute 18, 4
  15              		.file	"usbd_custom_hid_if.c"
  16              		.text
  17              	.Ltext0:
  18              		.cfi_sections	.debug_frame
  19              		.section	.text.CUSTOM_HID_Init_FS,"ax",%progbits
  20              		.align	1
  21              		.syntax unified
  22              		.thumb
  23              		.thumb_func
  25              	CUSTOM_HID_Init_FS:
  26              	.LFB134:
  27              		.file 1 "USB_DEVICE/App/usbd_custom_hid_if.c"
   1:USB_DEVICE/App/usbd_custom_hid_if.c **** /* USER CODE BEGIN Header */
   2:USB_DEVICE/App/usbd_custom_hid_if.c **** /**
   3:USB_DEVICE/App/usbd_custom_hid_if.c ****  ******************************************************************************
   4:USB_DEVICE/App/usbd_custom_hid_if.c ****  * @file           : usbd_custom_hid_if.c
   5:USB_DEVICE/App/usbd_custom_hid_if.c ****  * @version        : v1.0_Cube
   6:USB_DEVICE/App/usbd_custom_hid_if.c ****  * @brief          : USB Device Custom HID interface file.
   7:USB_DEVICE/App/usbd_custom_hid_if.c ****  ******************************************************************************
   8:USB_DEVICE/App/usbd_custom_hid_if.c ****  * @attention
   9:USB_DEVICE/App/usbd_custom_hid_if.c ****  *
  10:USB_DEVICE/App/usbd_custom_hid_if.c ****  * Copyright (c) 2023 STMicroelectronics.
  11:USB_DEVICE/App/usbd_custom_hid_if.c ****  * All rights reserved.
  12:USB_DEVICE/App/usbd_custom_hid_if.c ****  *
  13:USB_DEVICE/App/usbd_custom_hid_if.c ****  * This software is licensed under terms that can be found in the LICENSE file
  14:USB_DEVICE/App/usbd_custom_hid_if.c ****  * in the root directory of this software component.
  15:USB_DEVICE/App/usbd_custom_hid_if.c ****  * If no LICENSE file comes with this software, it is provided AS-IS.
  16:USB_DEVICE/App/usbd_custom_hid_if.c ****  *
  17:USB_DEVICE/App/usbd_custom_hid_if.c ****  ******************************************************************************
  18:USB_DEVICE/App/usbd_custom_hid_if.c ****  */
  19:USB_DEVICE/App/usbd_custom_hid_if.c **** /* USER CODE END Header */
  20:USB_DEVICE/App/usbd_custom_hid_if.c **** 
  21:USB_DEVICE/App/usbd_custom_hid_if.c **** /* Includes ------------------------------------------------------------------*/
  22:USB_DEVICE/App/usbd_custom_hid_if.c **** #include "usbd_custom_hid_if.h"
  23:USB_DEVICE/App/usbd_custom_hid_if.c **** 
  24:USB_DEVICE/App/usbd_custom_hid_if.c **** /* USER CODE BEGIN INCLUDE */
  25:USB_DEVICE/App/usbd_custom_hid_if.c **** #include "../../dataprovider.h"
  26:USB_DEVICE/App/usbd_custom_hid_if.c **** #include "../../rust_wrapper.h"
  27:USB_DEVICE/App/usbd_custom_hid_if.c **** /* USER CODE END INCLUDE */
  28:USB_DEVICE/App/usbd_custom_hid_if.c **** 
  29:USB_DEVICE/App/usbd_custom_hid_if.c **** /* Private typedef -----------------------------------------------------------*/
  30:USB_DEVICE/App/usbd_custom_hid_if.c **** /* Private define ------------------------------------------------------------*/
  31:USB_DEVICE/App/usbd_custom_hid_if.c **** /* Private macro -------------------------------------------------------------*/
ARM GAS  C:\Users\Bence\AppData\Local\Temp\cc1gxkVg.s 			page 2


  32:USB_DEVICE/App/usbd_custom_hid_if.c **** 
  33:USB_DEVICE/App/usbd_custom_hid_if.c **** /* USER CODE BEGIN PV */
  34:USB_DEVICE/App/usbd_custom_hid_if.c **** /* Private variables ---------------------------------------------------------*/
  35:USB_DEVICE/App/usbd_custom_hid_if.c **** struct dataprovider Dataprovider;
  36:USB_DEVICE/App/usbd_custom_hid_if.c **** /* USER CODE END PV */
  37:USB_DEVICE/App/usbd_custom_hid_if.c **** 
  38:USB_DEVICE/App/usbd_custom_hid_if.c **** /** @addtogroup STM32_USB_OTG_DEVICE_LIBRARY
  39:USB_DEVICE/App/usbd_custom_hid_if.c ****  * @brief Usb device.
  40:USB_DEVICE/App/usbd_custom_hid_if.c ****  * @{
  41:USB_DEVICE/App/usbd_custom_hid_if.c ****  */
  42:USB_DEVICE/App/usbd_custom_hid_if.c **** 
  43:USB_DEVICE/App/usbd_custom_hid_if.c **** /** @addtogroup USBD_CUSTOM_HID
  44:USB_DEVICE/App/usbd_custom_hid_if.c ****  * @{
  45:USB_DEVICE/App/usbd_custom_hid_if.c ****  */
  46:USB_DEVICE/App/usbd_custom_hid_if.c **** 
  47:USB_DEVICE/App/usbd_custom_hid_if.c **** /** @defgroup USBD_CUSTOM_HID_Private_TypesDefinitions USBD_CUSTOM_HID_Private_TypesDefinitions
  48:USB_DEVICE/App/usbd_custom_hid_if.c ****  * @brief Private types.
  49:USB_DEVICE/App/usbd_custom_hid_if.c ****  * @{
  50:USB_DEVICE/App/usbd_custom_hid_if.c ****  */
  51:USB_DEVICE/App/usbd_custom_hid_if.c **** 
  52:USB_DEVICE/App/usbd_custom_hid_if.c **** /* USER CODE BEGIN PRIVATE_TYPES */
  53:USB_DEVICE/App/usbd_custom_hid_if.c **** 
  54:USB_DEVICE/App/usbd_custom_hid_if.c **** /* USER CODE END PRIVATE_TYPES */
  55:USB_DEVICE/App/usbd_custom_hid_if.c **** 
  56:USB_DEVICE/App/usbd_custom_hid_if.c **** /**
  57:USB_DEVICE/App/usbd_custom_hid_if.c ****  * @}
  58:USB_DEVICE/App/usbd_custom_hid_if.c ****  */
  59:USB_DEVICE/App/usbd_custom_hid_if.c **** 
  60:USB_DEVICE/App/usbd_custom_hid_if.c **** /** @defgroup USBD_CUSTOM_HID_Private_Defines USBD_CUSTOM_HID_Private_Defines
  61:USB_DEVICE/App/usbd_custom_hid_if.c ****  * @brief Private defines.
  62:USB_DEVICE/App/usbd_custom_hid_if.c ****  * @{
  63:USB_DEVICE/App/usbd_custom_hid_if.c ****  */
  64:USB_DEVICE/App/usbd_custom_hid_if.c **** 
  65:USB_DEVICE/App/usbd_custom_hid_if.c **** /* USER CODE BEGIN PRIVATE_DEFINES */
  66:USB_DEVICE/App/usbd_custom_hid_if.c **** uint8_t buffer[0x40];
  67:USB_DEVICE/App/usbd_custom_hid_if.c **** /* USER CODE END PRIVATE_DEFINES */
  68:USB_DEVICE/App/usbd_custom_hid_if.c **** 
  69:USB_DEVICE/App/usbd_custom_hid_if.c **** /**
  70:USB_DEVICE/App/usbd_custom_hid_if.c ****  * @}
  71:USB_DEVICE/App/usbd_custom_hid_if.c ****  */
  72:USB_DEVICE/App/usbd_custom_hid_if.c **** 
  73:USB_DEVICE/App/usbd_custom_hid_if.c **** /** @defgroup USBD_CUSTOM_HID_Private_Macros USBD_CUSTOM_HID_Private_Macros
  74:USB_DEVICE/App/usbd_custom_hid_if.c ****  * @brief Private macros.
  75:USB_DEVICE/App/usbd_custom_hid_if.c ****  * @{
  76:USB_DEVICE/App/usbd_custom_hid_if.c ****  */
  77:USB_DEVICE/App/usbd_custom_hid_if.c **** 
  78:USB_DEVICE/App/usbd_custom_hid_if.c **** /* USER CODE BEGIN PRIVATE_MACRO */
  79:USB_DEVICE/App/usbd_custom_hid_if.c **** 
  80:USB_DEVICE/App/usbd_custom_hid_if.c **** /* USER CODE END PRIVATE_MACRO */
  81:USB_DEVICE/App/usbd_custom_hid_if.c **** 
  82:USB_DEVICE/App/usbd_custom_hid_if.c **** /**
  83:USB_DEVICE/App/usbd_custom_hid_if.c ****  * @}
  84:USB_DEVICE/App/usbd_custom_hid_if.c ****  */
  85:USB_DEVICE/App/usbd_custom_hid_if.c **** 
  86:USB_DEVICE/App/usbd_custom_hid_if.c **** /** @defgroup USBD_CUSTOM_HID_Private_Variables USBD_CUSTOM_HID_Private_Variables
  87:USB_DEVICE/App/usbd_custom_hid_if.c ****  * @brief Private variables.
  88:USB_DEVICE/App/usbd_custom_hid_if.c ****  * @{
ARM GAS  C:\Users\Bence\AppData\Local\Temp\cc1gxkVg.s 			page 3


  89:USB_DEVICE/App/usbd_custom_hid_if.c ****  */
  90:USB_DEVICE/App/usbd_custom_hid_if.c **** 
  91:USB_DEVICE/App/usbd_custom_hid_if.c **** /** Usb HID report descriptor. */
  92:USB_DEVICE/App/usbd_custom_hid_if.c **** __ALIGN_BEGIN static uint8_t CUSTOM_HID_ReportDesc_FS[USBD_CUSTOM_HID_REPORT_DESC_SIZE] __ALIGN_END
  93:USB_DEVICE/App/usbd_custom_hid_if.c ****     {
  94:USB_DEVICE/App/usbd_custom_hid_if.c ****         /* USER CODE BEGIN 0 */
  95:USB_DEVICE/App/usbd_custom_hid_if.c ****         0x06, 0x00, 0xff, // Usage Page(Undefined)
  96:USB_DEVICE/App/usbd_custom_hid_if.c ****         0x09, 0x01,       // USAGE(Undefined)
  97:USB_DEVICE/App/usbd_custom_hid_if.c ****         0xa1, 0x01,       // COLLECTION (Application)
  98:USB_DEVICE/App/usbd_custom_hid_if.c ****         0x15, 0x00,       // LOGICAL_MINIMUM(0)
  99:USB_DEVICE/App/usbd_custom_hid_if.c ****         0x26, 0xff, 0x00, // LOGICAL_MAXIMUM(255)
 100:USB_DEVICE/App/usbd_custom_hid_if.c ****         0x75, 0x08,       // REPORT_SIZE(8)
 101:USB_DEVICE/App/usbd_custom_hid_if.c ****         0x95, 0x40,       // REPORT_COUNT(64)
 102:USB_DEVICE/App/usbd_custom_hid_if.c ****         0x09, 0x01,       // USAGE (Undefined)
 103:USB_DEVICE/App/usbd_custom_hid_if.c ****         0x81, 0x02,       // INPUT (Data,Var,Abs)
 104:USB_DEVICE/App/usbd_custom_hid_if.c ****         0x95, 0x40,       // REPORT_COUNT(64)
 105:USB_DEVICE/App/usbd_custom_hid_if.c ****         0x09, 0x01,       // USAGE (Undefined)
 106:USB_DEVICE/App/usbd_custom_hid_if.c ****         0x91, 0x02,       // OUTPUT (Data,Var,Abs)
 107:USB_DEVICE/App/usbd_custom_hid_if.c ****         0x95, 0x01,       // REPORT_COUNT(1)
 108:USB_DEVICE/App/usbd_custom_hid_if.c ****         0x09, 0x01,       // USAGE (Undefined)
 109:USB_DEVICE/App/usbd_custom_hid_if.c ****         0xb1, 0x02,       // FEATURE (Data,Var,Abs)
 110:USB_DEVICE/App/usbd_custom_hid_if.c ****         /* USER CODE END 0 */
 111:USB_DEVICE/App/usbd_custom_hid_if.c ****         0xC0 /*     END_COLLECTION	             */
 112:USB_DEVICE/App/usbd_custom_hid_if.c **** };
 113:USB_DEVICE/App/usbd_custom_hid_if.c **** 
 114:USB_DEVICE/App/usbd_custom_hid_if.c **** /* USER CODE BEGIN PRIVATE_VARIABLES */
 115:USB_DEVICE/App/usbd_custom_hid_if.c **** 
 116:USB_DEVICE/App/usbd_custom_hid_if.c **** /* USER CODE END PRIVATE_VARIABLES */
 117:USB_DEVICE/App/usbd_custom_hid_if.c **** 
 118:USB_DEVICE/App/usbd_custom_hid_if.c **** /**
 119:USB_DEVICE/App/usbd_custom_hid_if.c ****  * @}
 120:USB_DEVICE/App/usbd_custom_hid_if.c ****  */
 121:USB_DEVICE/App/usbd_custom_hid_if.c **** 
 122:USB_DEVICE/App/usbd_custom_hid_if.c **** /** @defgroup USBD_CUSTOM_HID_Exported_Variables USBD_CUSTOM_HID_Exported_Variables
 123:USB_DEVICE/App/usbd_custom_hid_if.c ****  * @brief Public variables.
 124:USB_DEVICE/App/usbd_custom_hid_if.c ****  * @{
 125:USB_DEVICE/App/usbd_custom_hid_if.c ****  */
 126:USB_DEVICE/App/usbd_custom_hid_if.c **** extern USBD_HandleTypeDef hUsbDeviceFS;
 127:USB_DEVICE/App/usbd_custom_hid_if.c **** 
 128:USB_DEVICE/App/usbd_custom_hid_if.c **** /* USER CODE BEGIN EXPORTED_VARIABLES */
 129:USB_DEVICE/App/usbd_custom_hid_if.c **** 
 130:USB_DEVICE/App/usbd_custom_hid_if.c **** /* USER CODE END EXPORTED_VARIABLES */
 131:USB_DEVICE/App/usbd_custom_hid_if.c **** /**
 132:USB_DEVICE/App/usbd_custom_hid_if.c ****  * @}
 133:USB_DEVICE/App/usbd_custom_hid_if.c ****  */
 134:USB_DEVICE/App/usbd_custom_hid_if.c **** 
 135:USB_DEVICE/App/usbd_custom_hid_if.c **** /** @defgroup USBD_CUSTOM_HID_Private_FunctionPrototypes USBD_CUSTOM_HID_Private_FunctionPrototypes
 136:USB_DEVICE/App/usbd_custom_hid_if.c ****  * @brief Private functions declaration.
 137:USB_DEVICE/App/usbd_custom_hid_if.c ****  * @{
 138:USB_DEVICE/App/usbd_custom_hid_if.c ****  */
 139:USB_DEVICE/App/usbd_custom_hid_if.c **** 
 140:USB_DEVICE/App/usbd_custom_hid_if.c **** static int8_t CUSTOM_HID_Init_FS(void);
 141:USB_DEVICE/App/usbd_custom_hid_if.c **** static int8_t CUSTOM_HID_DeInit_FS(void);
 142:USB_DEVICE/App/usbd_custom_hid_if.c **** static int8_t CUSTOM_HID_OutEvent_FS(uint8_t *state);
 143:USB_DEVICE/App/usbd_custom_hid_if.c **** 
 144:USB_DEVICE/App/usbd_custom_hid_if.c **** /**
 145:USB_DEVICE/App/usbd_custom_hid_if.c ****  * @}
ARM GAS  C:\Users\Bence\AppData\Local\Temp\cc1gxkVg.s 			page 4


 146:USB_DEVICE/App/usbd_custom_hid_if.c ****  */
 147:USB_DEVICE/App/usbd_custom_hid_if.c **** 
 148:USB_DEVICE/App/usbd_custom_hid_if.c **** USBD_CUSTOM_HID_ItfTypeDef USBD_CustomHID_fops_FS =
 149:USB_DEVICE/App/usbd_custom_hid_if.c ****     {
 150:USB_DEVICE/App/usbd_custom_hid_if.c ****         CUSTOM_HID_ReportDesc_FS,
 151:USB_DEVICE/App/usbd_custom_hid_if.c ****         CUSTOM_HID_Init_FS,
 152:USB_DEVICE/App/usbd_custom_hid_if.c ****         CUSTOM_HID_DeInit_FS,
 153:USB_DEVICE/App/usbd_custom_hid_if.c ****         CUSTOM_HID_OutEvent_FS};
 154:USB_DEVICE/App/usbd_custom_hid_if.c **** 
 155:USB_DEVICE/App/usbd_custom_hid_if.c **** /** @defgroup USBD_CUSTOM_HID_Private_Functions USBD_CUSTOM_HID_Private_Functions
 156:USB_DEVICE/App/usbd_custom_hid_if.c ****  * @brief Private functions.
 157:USB_DEVICE/App/usbd_custom_hid_if.c ****  * @{
 158:USB_DEVICE/App/usbd_custom_hid_if.c ****  */
 159:USB_DEVICE/App/usbd_custom_hid_if.c **** 
 160:USB_DEVICE/App/usbd_custom_hid_if.c **** /* Private functions ---------------------------------------------------------*/
 161:USB_DEVICE/App/usbd_custom_hid_if.c **** 
 162:USB_DEVICE/App/usbd_custom_hid_if.c **** /**
 163:USB_DEVICE/App/usbd_custom_hid_if.c ****  * @brief  Initializes the CUSTOM HID media low layer
 164:USB_DEVICE/App/usbd_custom_hid_if.c ****  * @retval USBD_OK if all operations are OK else USBD_FAIL
 165:USB_DEVICE/App/usbd_custom_hid_if.c ****  */
 166:USB_DEVICE/App/usbd_custom_hid_if.c **** static int8_t CUSTOM_HID_Init_FS(void)
 167:USB_DEVICE/App/usbd_custom_hid_if.c **** {
  28              		.loc 1 167 1 view -0
  29              		.cfi_startproc
  30              		@ args = 0, pretend = 0, frame = 0
  31              		@ frame_needed = 0, uses_anonymous_args = 0
  32              		@ link register save eliminated.
 168:USB_DEVICE/App/usbd_custom_hid_if.c ****   /* USER CODE BEGIN 4 */
 169:USB_DEVICE/App/usbd_custom_hid_if.c ****   return (USBD_OK);
  33              		.loc 1 169 3 view .LVU1
 170:USB_DEVICE/App/usbd_custom_hid_if.c ****   /* USER CODE END 4 */
 171:USB_DEVICE/App/usbd_custom_hid_if.c **** }
  34              		.loc 1 171 1 is_stmt 0 view .LVU2
  35 0000 0020     		movs	r0, #0
  36 0002 7047     		bx	lr
  37              		.cfi_endproc
  38              	.LFE134:
  40              		.section	.text.CUSTOM_HID_DeInit_FS,"ax",%progbits
  41              		.align	1
  42              		.syntax unified
  43              		.thumb
  44              		.thumb_func
  46              	CUSTOM_HID_DeInit_FS:
  47              	.LFB135:
 172:USB_DEVICE/App/usbd_custom_hid_if.c **** 
 173:USB_DEVICE/App/usbd_custom_hid_if.c **** /**
 174:USB_DEVICE/App/usbd_custom_hid_if.c ****  * @brief  DeInitializes the CUSTOM HID media low layer
 175:USB_DEVICE/App/usbd_custom_hid_if.c ****  * @retval USBD_OK if all operations are OK else USBD_FAIL
 176:USB_DEVICE/App/usbd_custom_hid_if.c ****  */
 177:USB_DEVICE/App/usbd_custom_hid_if.c **** static int8_t CUSTOM_HID_DeInit_FS(void)
 178:USB_DEVICE/App/usbd_custom_hid_if.c **** {
  48              		.loc 1 178 1 is_stmt 1 view -0
  49              		.cfi_startproc
  50              		@ args = 0, pretend = 0, frame = 0
  51              		@ frame_needed = 0, uses_anonymous_args = 0
  52              		@ link register save eliminated.
 179:USB_DEVICE/App/usbd_custom_hid_if.c ****   /* USER CODE BEGIN 5 */
ARM GAS  C:\Users\Bence\AppData\Local\Temp\cc1gxkVg.s 			page 5


 180:USB_DEVICE/App/usbd_custom_hid_if.c ****   return (USBD_OK);
  53              		.loc 1 180 3 view .LVU4
 181:USB_DEVICE/App/usbd_custom_hid_if.c ****   /* USER CODE END 5 */
 182:USB_DEVICE/App/usbd_custom_hid_if.c **** }
  54              		.loc 1 182 1 is_stmt 0 view .LVU5
  55 0000 0020     		movs	r0, #0
  56 0002 7047     		bx	lr
  57              		.cfi_endproc
  58              	.LFE135:
  60              		.section	.text.CUSTOM_HID_OutEvent_FS,"ax",%progbits
  61              		.align	1
  62              		.syntax unified
  63              		.thumb
  64              		.thumb_func
  66              	CUSTOM_HID_OutEvent_FS:
  67              	.LVL0:
  68              	.LFB136:
 183:USB_DEVICE/App/usbd_custom_hid_if.c **** 
 184:USB_DEVICE/App/usbd_custom_hid_if.c **** /**
 185:USB_DEVICE/App/usbd_custom_hid_if.c ****  * @brief  Manage the CUSTOM HID class events
 186:USB_DEVICE/App/usbd_custom_hid_if.c ****  * @param  event_idx: Event index
 187:USB_DEVICE/App/usbd_custom_hid_if.c ****  * @param  state: Event state
 188:USB_DEVICE/App/usbd_custom_hid_if.c ****  * @retval USBD_OK if all operations are OK else USBD_FAIL
 189:USB_DEVICE/App/usbd_custom_hid_if.c ****  */
 190:USB_DEVICE/App/usbd_custom_hid_if.c **** static int8_t CUSTOM_HID_OutEvent_FS(uint8_t *state)
 191:USB_DEVICE/App/usbd_custom_hid_if.c **** {
  69              		.loc 1 191 1 is_stmt 1 view -0
  70              		.cfi_startproc
  71              		@ args = 0, pretend = 0, frame = 0
  72              		@ frame_needed = 0, uses_anonymous_args = 0
  73              		.loc 1 191 1 is_stmt 0 view .LVU7
  74 0000 38B5     		push	{r3, r4, r5, lr}
  75              	.LCFI0:
  76              		.cfi_def_cfa_offset 16
  77              		.cfi_offset 3, -16
  78              		.cfi_offset 4, -12
  79              		.cfi_offset 5, -8
  80              		.cfi_offset 14, -4
 192:USB_DEVICE/App/usbd_custom_hid_if.c ****   /* USER CODE BEGIN 6 */
 193:USB_DEVICE/App/usbd_custom_hid_if.c ****   memcpy(buffer, state, 0x40);
  81              		.loc 1 193 3 is_stmt 1 view .LVU8
  82 0002 8446     		mov	ip, r0
  83 0004 3C4D     		ldr	r5, .L15
  84 0006 00F1400E 		add	lr, r0, #64
  85              	.LVL1:
  86              	.L4:
  87              		.loc 1 193 3 is_stmt 0 view .LVU9
  88 000a 2C46     		mov	r4, r5
  89 000c DCF80000 		ldr	r0, [ip]	@ unaligned
  90 0010 DCF80410 		ldr	r1, [ip, #4]	@ unaligned
  91 0014 DCF80820 		ldr	r2, [ip, #8]	@ unaligned
  92 0018 DCF80C30 		ldr	r3, [ip, #12]	@ unaligned
  93 001c 0FC4     		stmia	r4!, {r0, r1, r2, r3}
  94 001e 0CF1100C 		add	ip, ip, #16
  95 0022 2546     		mov	r5, r4
  96 0024 F445     		cmp	ip, lr
  97 0026 F0D1     		bne	.L4
ARM GAS  C:\Users\Bence\AppData\Local\Temp\cc1gxkVg.s 			page 6


 194:USB_DEVICE/App/usbd_custom_hid_if.c ****   uint8_t num = get_task_from_rust(&buffer);
  98              		.loc 1 194 3 is_stmt 1 view .LVU10
  99              		.loc 1 194 17 is_stmt 0 view .LVU11
 100 0028 3348     		ldr	r0, .L15
 101 002a FFF7FEFF 		bl	get_task_from_rust
 102              	.LVL2:
 103              		.loc 1 194 17 view .LVU12
 104 002e 0446     		mov	r4, r0
 105              	.LVL3:
 195:USB_DEVICE/App/usbd_custom_hid_if.c **** 
 196:USB_DEVICE/App/usbd_custom_hid_if.c ****   if (num == 2)
 106              		.loc 1 196 3 is_stmt 1 view .LVU13
 107              		.loc 1 196 6 is_stmt 0 view .LVU14
 108 0030 0228     		cmp	r0, #2
 109 0032 22D0     		beq	.L12
 197:USB_DEVICE/App/usbd_custom_hid_if.c ****   {
 198:USB_DEVICE/App/usbd_custom_hid_if.c ****     setLDs(2);
 199:USB_DEVICE/App/usbd_custom_hid_if.c ****     setLED_Blue_currentState(!getLED_Blue_currentState());
 200:USB_DEVICE/App/usbd_custom_hid_if.c ****     memset(buffer, 0, 0x40);
 201:USB_DEVICE/App/usbd_custom_hid_if.c ****     buffer[1] = 79;
 202:USB_DEVICE/App/usbd_custom_hid_if.c ****     buffer[2] = 75;
 203:USB_DEVICE/App/usbd_custom_hid_if.c ****     USBD_CUSTOM_HID_SendReport(&hUsbDeviceFS, buffer, 0x40);
 204:USB_DEVICE/App/usbd_custom_hid_if.c ****   }
 205:USB_DEVICE/App/usbd_custom_hid_if.c ****   else if (num == 3)
 110              		.loc 1 205 8 is_stmt 1 view .LVU15
 111              		.loc 1 205 11 is_stmt 0 view .LVU16
 112 0034 0328     		cmp	r0, #3
 113 0036 3BD0     		beq	.L13
 206:USB_DEVICE/App/usbd_custom_hid_if.c ****   {
 207:USB_DEVICE/App/usbd_custom_hid_if.c ****     setLDs(3);
 208:USB_DEVICE/App/usbd_custom_hid_if.c ****     setLED_Red_currentState(!getLED_Red_currentState());
 209:USB_DEVICE/App/usbd_custom_hid_if.c ****     memset(buffer, 0, 0x40);
 210:USB_DEVICE/App/usbd_custom_hid_if.c ****     buffer[1] = 79;
 211:USB_DEVICE/App/usbd_custom_hid_if.c ****     buffer[2] = 75;
 212:USB_DEVICE/App/usbd_custom_hid_if.c ****     USBD_CUSTOM_HID_SendReport(&hUsbDeviceFS, buffer, 0x40);
 213:USB_DEVICE/App/usbd_custom_hid_if.c ****   }
 214:USB_DEVICE/App/usbd_custom_hid_if.c ****   else if (num > 24 && num < 251)
 114              		.loc 1 214 8 is_stmt 1 view .LVU17
 115              		.loc 1 214 21 is_stmt 0 view .LVU18
 116 0038 A0F11903 		sub	r3, r0, #25
 117 003c DBB2     		uxtb	r3, r3
 118              		.loc 1 214 11 view .LVU19
 119 003e E12B     		cmp	r3, #225
 120 0040 51D8     		bhi	.L8
 215:USB_DEVICE/App/usbd_custom_hid_if.c ****   {
 216:USB_DEVICE/App/usbd_custom_hid_if.c ****     setLDs(1);
 121              		.loc 1 216 5 is_stmt 1 view .LVU20
 122 0042 0120     		movs	r0, #1
 123              	.LVL4:
 124              		.loc 1 216 5 is_stmt 0 view .LVU21
 125 0044 FFF7FEFF 		bl	setLDs
 126              	.LVL5:
 217:USB_DEVICE/App/usbd_custom_hid_if.c ****     setLED_Green_speed(num * 2);
 127              		.loc 1 217 5 is_stmt 1 view .LVU22
 128 0048 6000     		lsls	r0, r4, #1
 129 004a FFF7FEFF 		bl	setLED_Green_speed
 130              	.LVL6:
ARM GAS  C:\Users\Bence\AppData\Local\Temp\cc1gxkVg.s 			page 7


 218:USB_DEVICE/App/usbd_custom_hid_if.c ****     memset(buffer, 0, 0x40);
 131              		.loc 1 218 5 view .LVU23
 132 004e 2A4C     		ldr	r4, .L15
 133 0050 4025     		movs	r5, #64
 134 0052 2A46     		mov	r2, r5
 135 0054 0021     		movs	r1, #0
 136 0056 2046     		mov	r0, r4
 137 0058 FFF7FEFF 		bl	memset
 138              	.LVL7:
 219:USB_DEVICE/App/usbd_custom_hid_if.c ****     buffer[1] = 79;
 139              		.loc 1 219 5 view .LVU24
 140              		.loc 1 219 15 is_stmt 0 view .LVU25
 141 005c 4F23     		movs	r3, #79
 142 005e 6370     		strb	r3, [r4, #1]
 220:USB_DEVICE/App/usbd_custom_hid_if.c ****     buffer[2] = 75;
 143              		.loc 1 220 5 is_stmt 1 view .LVU26
 144              		.loc 1 220 15 is_stmt 0 view .LVU27
 145 0060 4B23     		movs	r3, #75
 146 0062 A370     		strb	r3, [r4, #2]
 221:USB_DEVICE/App/usbd_custom_hid_if.c ****     USBD_CUSTOM_HID_SendReport(&hUsbDeviceFS, buffer, 0x40);
 147              		.loc 1 221 5 is_stmt 1 view .LVU28
 148 0064 2A46     		mov	r2, r5
 149 0066 2146     		mov	r1, r4
 150 0068 2448     		ldr	r0, .L15+4
 151 006a FFF7FEFF 		bl	USBD_CUSTOM_HID_SendReport
 152              	.LVL8:
 153              	.L6:
 222:USB_DEVICE/App/usbd_custom_hid_if.c ****   }
 223:USB_DEVICE/App/usbd_custom_hid_if.c ****   else
 224:USB_DEVICE/App/usbd_custom_hid_if.c ****   {
 225:USB_DEVICE/App/usbd_custom_hid_if.c ****     USBD_CUSTOM_HID_SendReport(&hUsbDeviceFS, buffer, 0x40);
 226:USB_DEVICE/App/usbd_custom_hid_if.c ****   }
 227:USB_DEVICE/App/usbd_custom_hid_if.c **** 
 228:USB_DEVICE/App/usbd_custom_hid_if.c ****   // UNUSED(event_idx);
 229:USB_DEVICE/App/usbd_custom_hid_if.c ****   UNUSED(state);
 154              		.loc 1 229 3 view .LVU29
 230:USB_DEVICE/App/usbd_custom_hid_if.c **** 
 231:USB_DEVICE/App/usbd_custom_hid_if.c ****   /* Start next USB packet transfer once data processing is completed */
 232:USB_DEVICE/App/usbd_custom_hid_if.c ****   if (USBD_CUSTOM_HID_ReceivePacket(&hUsbDeviceFS) != (uint8_t)USBD_OK)
 155              		.loc 1 232 3 view .LVU30
 156              		.loc 1 232 7 is_stmt 0 view .LVU31
 157 006e 2348     		ldr	r0, .L15+4
 158 0070 FFF7FEFF 		bl	USBD_CUSTOM_HID_ReceivePacket
 159              	.LVL9:
 160              		.loc 1 232 6 view .LVU32
 161 0074 0028     		cmp	r0, #0
 162 0076 3CD1     		bne	.L14
 163              	.L9:
 233:USB_DEVICE/App/usbd_custom_hid_if.c ****   {
 234:USB_DEVICE/App/usbd_custom_hid_if.c ****     return -1;
 235:USB_DEVICE/App/usbd_custom_hid_if.c ****   }
 236:USB_DEVICE/App/usbd_custom_hid_if.c **** 
 237:USB_DEVICE/App/usbd_custom_hid_if.c ****   return (USBD_OK);
 238:USB_DEVICE/App/usbd_custom_hid_if.c ****   /* USER CODE END 6 */
 239:USB_DEVICE/App/usbd_custom_hid_if.c **** }
 164              		.loc 1 239 1 view .LVU33
 165 0078 38BD     		pop	{r3, r4, r5, pc}
ARM GAS  C:\Users\Bence\AppData\Local\Temp\cc1gxkVg.s 			page 8


 166              	.LVL10:
 167              	.L12:
 198:USB_DEVICE/App/usbd_custom_hid_if.c ****     setLED_Blue_currentState(!getLED_Blue_currentState());
 168              		.loc 1 198 5 is_stmt 1 view .LVU34
 169 007a 0220     		movs	r0, #2
 170              	.LVL11:
 198:USB_DEVICE/App/usbd_custom_hid_if.c ****     setLED_Blue_currentState(!getLED_Blue_currentState());
 171              		.loc 1 198 5 is_stmt 0 view .LVU35
 172 007c FFF7FEFF 		bl	setLDs
 173              	.LVL12:
 199:USB_DEVICE/App/usbd_custom_hid_if.c ****     memset(buffer, 0, 0x40);
 174              		.loc 1 199 5 is_stmt 1 view .LVU36
 199:USB_DEVICE/App/usbd_custom_hid_if.c ****     memset(buffer, 0, 0x40);
 175              		.loc 1 199 31 is_stmt 0 view .LVU37
 176 0080 FFF7FEFF 		bl	getLED_Blue_currentState
 177              	.LVL13:
 199:USB_DEVICE/App/usbd_custom_hid_if.c ****     memset(buffer, 0, 0x40);
 178              		.loc 1 199 5 view .LVU38
 179 0084 B0FA80F0 		clz	r0, r0
 180 0088 4009     		lsrs	r0, r0, #5
 181 008a FFF7FEFF 		bl	setLED_Blue_currentState
 182              	.LVL14:
 200:USB_DEVICE/App/usbd_custom_hid_if.c ****     buffer[1] = 79;
 183              		.loc 1 200 5 is_stmt 1 view .LVU39
 184 008e 1A4C     		ldr	r4, .L15
 185 0090 4025     		movs	r5, #64
 186 0092 2A46     		mov	r2, r5
 187 0094 0021     		movs	r1, #0
 188 0096 2046     		mov	r0, r4
 189 0098 FFF7FEFF 		bl	memset
 190              	.LVL15:
 201:USB_DEVICE/App/usbd_custom_hid_if.c ****     buffer[2] = 75;
 191              		.loc 1 201 5 view .LVU40
 201:USB_DEVICE/App/usbd_custom_hid_if.c ****     buffer[2] = 75;
 192              		.loc 1 201 15 is_stmt 0 view .LVU41
 193 009c 4F23     		movs	r3, #79
 194 009e 6370     		strb	r3, [r4, #1]
 202:USB_DEVICE/App/usbd_custom_hid_if.c ****     USBD_CUSTOM_HID_SendReport(&hUsbDeviceFS, buffer, 0x40);
 195              		.loc 1 202 5 is_stmt 1 view .LVU42
 202:USB_DEVICE/App/usbd_custom_hid_if.c ****     USBD_CUSTOM_HID_SendReport(&hUsbDeviceFS, buffer, 0x40);
 196              		.loc 1 202 15 is_stmt 0 view .LVU43
 197 00a0 4B23     		movs	r3, #75
 198 00a2 A370     		strb	r3, [r4, #2]
 203:USB_DEVICE/App/usbd_custom_hid_if.c ****   }
 199              		.loc 1 203 5 is_stmt 1 view .LVU44
 200 00a4 2A46     		mov	r2, r5
 201 00a6 2146     		mov	r1, r4
 202 00a8 1448     		ldr	r0, .L15+4
 203 00aa FFF7FEFF 		bl	USBD_CUSTOM_HID_SendReport
 204              	.LVL16:
 205 00ae DEE7     		b	.L6
 206              	.LVL17:
 207              	.L13:
 207:USB_DEVICE/App/usbd_custom_hid_if.c ****     setLED_Red_currentState(!getLED_Red_currentState());
 208              		.loc 1 207 5 view .LVU45
 209 00b0 0320     		movs	r0, #3
 210              	.LVL18:
ARM GAS  C:\Users\Bence\AppData\Local\Temp\cc1gxkVg.s 			page 9


 207:USB_DEVICE/App/usbd_custom_hid_if.c ****     setLED_Red_currentState(!getLED_Red_currentState());
 211              		.loc 1 207 5 is_stmt 0 view .LVU46
 212 00b2 FFF7FEFF 		bl	setLDs
 213              	.LVL19:
 208:USB_DEVICE/App/usbd_custom_hid_if.c ****     memset(buffer, 0, 0x40);
 214              		.loc 1 208 5 is_stmt 1 view .LVU47
 208:USB_DEVICE/App/usbd_custom_hid_if.c ****     memset(buffer, 0, 0x40);
 215              		.loc 1 208 30 is_stmt 0 view .LVU48
 216 00b6 FFF7FEFF 		bl	getLED_Red_currentState
 217              	.LVL20:
 208:USB_DEVICE/App/usbd_custom_hid_if.c ****     memset(buffer, 0, 0x40);
 218              		.loc 1 208 5 view .LVU49
 219 00ba B0FA80F0 		clz	r0, r0
 220 00be 4009     		lsrs	r0, r0, #5
 221 00c0 FFF7FEFF 		bl	setLED_Red_currentState
 222              	.LVL21:
 209:USB_DEVICE/App/usbd_custom_hid_if.c ****     buffer[1] = 79;
 223              		.loc 1 209 5 is_stmt 1 view .LVU50
 224 00c4 0C4C     		ldr	r4, .L15
 225 00c6 4025     		movs	r5, #64
 226 00c8 2A46     		mov	r2, r5
 227 00ca 0021     		movs	r1, #0
 228 00cc 2046     		mov	r0, r4
 229 00ce FFF7FEFF 		bl	memset
 230              	.LVL22:
 210:USB_DEVICE/App/usbd_custom_hid_if.c ****     buffer[2] = 75;
 231              		.loc 1 210 5 view .LVU51
 210:USB_DEVICE/App/usbd_custom_hid_if.c ****     buffer[2] = 75;
 232              		.loc 1 210 15 is_stmt 0 view .LVU52
 233 00d2 4F23     		movs	r3, #79
 234 00d4 6370     		strb	r3, [r4, #1]
 211:USB_DEVICE/App/usbd_custom_hid_if.c ****     USBD_CUSTOM_HID_SendReport(&hUsbDeviceFS, buffer, 0x40);
 235              		.loc 1 211 5 is_stmt 1 view .LVU53
 211:USB_DEVICE/App/usbd_custom_hid_if.c ****     USBD_CUSTOM_HID_SendReport(&hUsbDeviceFS, buffer, 0x40);
 236              		.loc 1 211 15 is_stmt 0 view .LVU54
 237 00d6 4B23     		movs	r3, #75
 238 00d8 A370     		strb	r3, [r4, #2]
 212:USB_DEVICE/App/usbd_custom_hid_if.c ****   }
 239              		.loc 1 212 5 is_stmt 1 view .LVU55
 240 00da 2A46     		mov	r2, r5
 241 00dc 2146     		mov	r1, r4
 242 00de 0748     		ldr	r0, .L15+4
 243 00e0 FFF7FEFF 		bl	USBD_CUSTOM_HID_SendReport
 244              	.LVL23:
 245 00e4 C3E7     		b	.L6
 246              	.LVL24:
 247              	.L8:
 225:USB_DEVICE/App/usbd_custom_hid_if.c ****   }
 248              		.loc 1 225 5 view .LVU56
 249 00e6 4022     		movs	r2, #64
 250 00e8 0349     		ldr	r1, .L15
 251 00ea 0448     		ldr	r0, .L15+4
 252              	.LVL25:
 225:USB_DEVICE/App/usbd_custom_hid_if.c ****   }
 253              		.loc 1 225 5 is_stmt 0 view .LVU57
 254 00ec FFF7FEFF 		bl	USBD_CUSTOM_HID_SendReport
 255              	.LVL26:
ARM GAS  C:\Users\Bence\AppData\Local\Temp\cc1gxkVg.s 			page 10


 256 00f0 BDE7     		b	.L6
 257              	.L14:
 234:USB_DEVICE/App/usbd_custom_hid_if.c ****   }
 258              		.loc 1 234 12 view .LVU58
 259 00f2 4FF0FF30 		mov	r0, #-1
 260 00f6 BFE7     		b	.L9
 261              	.L16:
 262              		.align	2
 263              	.L15:
 264 00f8 00000000 		.word	.LANCHOR0
 265 00fc 00000000 		.word	hUsbDeviceFS
 266              		.cfi_endproc
 267              	.LFE136:
 269              		.global	USBD_CustomHID_fops_FS
 270              		.global	buffer
 271              		.global	Dataprovider
 272              		.section	.bss.Dataprovider,"aw",%nobits
 273              		.align	2
 276              	Dataprovider:
 277 0000 00000000 		.space	764
 277      00000000 
 277      00000000 
 277      00000000 
 277      00000000 
 278              		.section	.bss.buffer,"aw",%nobits
 279              		.align	2
 280              		.set	.LANCHOR0,. + 0
 283              	buffer:
 284 0000 00000000 		.space	64
 284      00000000 
 284      00000000 
 284      00000000 
 284      00000000 
 285              		.section	.data.CUSTOM_HID_ReportDesc_FS,"aw"
 286              		.align	2
 289              	CUSTOM_HID_ReportDesc_FS:
 290 0000 0600FF09 		.ascii	"\006\000\377\011\001\241\001\025\000&\377\000u\010\225"
 290      01A10115 
 290      0026FF00 
 290      750895
 291 000f 40090181 		.ascii	"@\011\001\201\002\225@\011\001\221\002\225\001\011\001"
 291      02954009 
 291      01910295 
 291      010901
 292 001e B102C0   		.ascii	"\261\002\300"
 293              		.section	.data.USBD_CustomHID_fops_FS,"aw"
 294              		.align	2
 297              	USBD_CustomHID_fops_FS:
 298 0000 00000000 		.word	CUSTOM_HID_ReportDesc_FS
 299 0004 00000000 		.word	CUSTOM_HID_Init_FS
 300 0008 00000000 		.word	CUSTOM_HID_DeInit_FS
 301 000c 00000000 		.word	CUSTOM_HID_OutEvent_FS
 302              		.text
 303              	.Letext0:
 304              		.file 2 "c:\\users\\bence\\.vscode\\extensions\\buzzyelectronics.stm-helper-1.3.0\\armgcc\\arm-non
 305              		.file 3 "c:\\users\\bence\\.vscode\\extensions\\buzzyelectronics.stm-helper-1.3.0\\armgcc\\arm-non
 306              		.file 4 "Middlewares/ST/STM32_USB_Device_Library/Core/Inc/usbd_def.h"
ARM GAS  C:\Users\Bence\AppData\Local\Temp\cc1gxkVg.s 			page 11


 307              		.file 5 "Middlewares/ST/STM32_USB_Device_Library/Class/CustomHID/Inc/usbd_customhid.h"
 308              		.file 6 "USB_DEVICE/App/../../dataprovider.h"
 309              		.file 7 "USB_DEVICE/App/usbd_custom_hid_if.h"
 310              		.file 8 "USB_DEVICE/App/../../rust_wrapper.h"
 311              		.file 9 "<built-in>"
ARM GAS  C:\Users\Bence\AppData\Local\Temp\cc1gxkVg.s 			page 12

